
beebs/src/nettle-arcfour/nettle-arcfour_base:     file format elf64-littleriscv


Disassembly of section .text:

00000000000100b0 <main>:
   100b0:	fd010113          	addi	sp,sp,-48
   100b4:	02113423          	sd	ra,40(sp)
   100b8:	02813023          	sd	s0,32(sp)
   100bc:	00913c23          	sd	s1,24(sp)
   100c0:	c00024f3          	rdcycle	s1
   100c4:	148000ef          	jal	ra,1020c <initialise_board>
   100c8:	264000ef          	jal	ra,1032c <initialise_benchmark>
   100cc:	00002437          	lui	s0,0x2
   100d0:	140000ef          	jal	ra,10210 <start_trigger>
   100d4:	71040413          	addi	s0,s0,1808 # 2710 <main-0xd9a0>
   100d8:	254000ef          	jal	ra,1032c <initialise_benchmark>
   100dc:	254000ef          	jal	ra,10330 <benchmark>
   100e0:	00a12623          	sw	a0,12(sp)
   100e4:	fff4041b          	addiw	s0,s0,-1
   100e8:	fe0418e3          	bnez	s0,100d8 <main+0x28>
   100ec:	128000ef          	jal	ra,10214 <stop_trigger>
   100f0:	00c12503          	lw	a0,12(sp)
   100f4:	0005051b          	sext.w	a0,a0
   100f8:	414000ef          	jal	ra,1050c <verify_benchmark>
   100fc:	00050413          	mv	s0,a0
   10100:	c00025f3          	rdcycle	a1
   10104:	00021537          	lui	a0,0x21
   10108:	409585b3          	sub	a1,a1,s1
   1010c:	ee050513          	addi	a0,a0,-288 # 20ee0 <__clzdi2+0x3c>
   10110:	66c000ef          	jal	ra,1077c <printf>
   10114:	02813083          	ld	ra,40(sp)
   10118:	00143513          	seqz	a0,s0
   1011c:	02013403          	ld	s0,32(sp)
   10120:	01813483          	ld	s1,24(sp)
   10124:	03010113          	addi	sp,sp,48
   10128:	00008067          	ret

000000000001012c <register_fini>:
   1012c:	000007b7          	lui	a5,0x0
   10130:	00078793          	mv	a5,a5
   10134:	00078863          	beqz	a5,10144 <register_fini+0x18>
   10138:	00013537          	lui	a0,0x13
   1013c:	7bc50513          	addi	a0,a0,1980 # 137bc <__libc_fini_array>
   10140:	6f00c06f          	j	1c830 <atexit>
   10144:	00008067          	ret

0000000000010148 <_start>:
   10148:	00013197          	auipc	gp,0x13
   1014c:	69018193          	addi	gp,gp,1680 # 237d8 <__global_pointer$>
   10150:	66018513          	addi	a0,gp,1632 # 23e38 <_edata>
   10154:	00014617          	auipc	a2,0x14
   10158:	e8460613          	addi	a2,a2,-380 # 23fd8 <__BSS_END__>
   1015c:	40a60633          	sub	a2,a2,a0
   10160:	00000593          	li	a1,0
   10164:	4fc000ef          	jal	ra,10660 <memset>
   10168:	0000c517          	auipc	a0,0xc
   1016c:	6c850513          	addi	a0,a0,1736 # 1c830 <atexit>
   10170:	00050863          	beqz	a0,10180 <_start+0x38>
   10174:	00003517          	auipc	a0,0x3
   10178:	64850513          	addi	a0,a0,1608 # 137bc <__libc_fini_array>
   1017c:	6b40c0ef          	jal	ra,1c830 <atexit>
   10180:	444000ef          	jal	ra,105c4 <__libc_init_array>
   10184:	00012503          	lw	a0,0(sp)
   10188:	00810593          	addi	a1,sp,8
   1018c:	00000613          	li	a2,0
   10190:	f21ff0ef          	jal	ra,100b0 <main>
   10194:	4000006f          	j	10594 <exit>

0000000000010198 <__do_global_dtors_aux>:
   10198:	6881c703          	lbu	a4,1672(gp) # 23e60 <completed.5525>
   1019c:	04071463          	bnez	a4,101e4 <__do_global_dtors_aux+0x4c>
   101a0:	ff010113          	addi	sp,sp,-16
   101a4:	00813023          	sd	s0,0(sp)
   101a8:	00078413          	mv	s0,a5
   101ac:	000007b7          	lui	a5,0x0
   101b0:	00113423          	sd	ra,8(sp)
   101b4:	00078793          	mv	a5,a5
   101b8:	00078a63          	beqz	a5,101cc <__do_global_dtors_aux+0x34>
   101bc:	00023537          	lui	a0,0x23
   101c0:	cc050513          	addi	a0,a0,-832 # 22cc0 <__FRAME_END__>
   101c4:	00000097          	auipc	ra,0x0
   101c8:	000000e7          	jalr	zero # 0 <main-0x100b0>
   101cc:	00100793          	li	a5,1
   101d0:	00813083          	ld	ra,8(sp)
   101d4:	68f18423          	sb	a5,1672(gp) # 23e60 <completed.5525>
   101d8:	00013403          	ld	s0,0(sp)
   101dc:	01010113          	addi	sp,sp,16
   101e0:	00008067          	ret
   101e4:	00008067          	ret

00000000000101e8 <frame_dummy>:
   101e8:	000007b7          	lui	a5,0x0
   101ec:	00078793          	mv	a5,a5
   101f0:	00078c63          	beqz	a5,10208 <frame_dummy+0x20>
   101f4:	00023537          	lui	a0,0x23
   101f8:	69018593          	addi	a1,gp,1680 # 23e68 <object.5530>
   101fc:	cc050513          	addi	a0,a0,-832 # 22cc0 <__FRAME_END__>
   10200:	00000317          	auipc	t1,0x0
   10204:	00000067          	jr	zero # 0 <main-0x100b0>
   10208:	00008067          	ret

000000000001020c <initialise_board>:
   1020c:	00008067          	ret

0000000000010210 <start_trigger>:
   10210:	00008067          	ret

0000000000010214 <stop_trigger>:
   10214:	00008067          	ret

0000000000010218 <arcfour_set_key>:
   10218:	00000793          	li	a5,0
   1021c:	10000693          	li	a3,256
   10220:	00f50733          	add	a4,a0,a5
   10224:	00f70023          	sb	a5,0(a4)
   10228:	00178793          	addi	a5,a5,1 # 1 <main-0x100af>
   1022c:	fed79ae3          	bne	a5,a3,10220 <arcfour_set_key+0x8>
   10230:	0005831b          	sext.w	t1,a1
   10234:	00050693          	mv	a3,a0
   10238:	10050e13          	addi	t3,a0,256
   1023c:	00000713          	li	a4,0
   10240:	00000793          	li	a5,0
   10244:	02071593          	slli	a1,a4,0x20
   10248:	0205d593          	srli	a1,a1,0x20
   1024c:	00b605b3          	add	a1,a2,a1
   10250:	0006c803          	lbu	a6,0(a3)
   10254:	0005c583          	lbu	a1,0(a1)
   10258:	00168693          	addi	a3,a3,1
   1025c:	0017071b          	addiw	a4,a4,1
   10260:	010585bb          	addw	a1,a1,a6
   10264:	00f587bb          	addw	a5,a1,a5
   10268:	0ff7f593          	andi	a1,a5,255
   1026c:	00b505b3          	add	a1,a0,a1
   10270:	0005c883          	lbu	a7,0(a1)
   10274:	0267773b          	remuw	a4,a4,t1
   10278:	0ff7f793          	andi	a5,a5,255
   1027c:	ff168fa3          	sb	a7,-1(a3)
   10280:	01058023          	sb	a6,0(a1)
   10284:	fcde10e3          	bne	t3,a3,10244 <arcfour_set_key+0x2c>
   10288:	100500a3          	sb	zero,257(a0)
   1028c:	10050023          	sb	zero,256(a0)
   10290:	00008067          	ret

0000000000010294 <arcfour_crypt>:
   10294:	10054f83          	lbu	t6,256(a0)
   10298:	10154303          	lbu	t1,257(a0)
   1029c:	fff58f1b          	addiw	t5,a1,-1
   102a0:	08058063          	beqz	a1,10320 <arcfour_crypt+0x8c>
   102a4:	020f1e13          	slli	t3,t5,0x20
   102a8:	020e5e13          	srli	t3,t3,0x20
   102ac:	001e0e13          	addi	t3,t3,1
   102b0:	40cf8ebb          	subw	t4,t6,a2
   102b4:	00060593          	mv	a1,a2
   102b8:	01c60e33          	add	t3,a2,t3
   102bc:	001e8e9b          	addiw	t4,t4,1
   102c0:	00be87bb          	addw	a5,t4,a1
   102c4:	0ff7f793          	andi	a5,a5,255
   102c8:	00f507b3          	add	a5,a0,a5
   102cc:	0007c803          	lbu	a6,0(a5)
   102d0:	00168693          	addi	a3,a3,1
   102d4:	00158593          	addi	a1,a1,1
   102d8:	0068073b          	addw	a4,a6,t1
   102dc:	0ff77613          	andi	a2,a4,255
   102e0:	00c50633          	add	a2,a0,a2
   102e4:	00064883          	lbu	a7,0(a2)
   102e8:	0ff77313          	andi	t1,a4,255
   102ec:	0118073b          	addw	a4,a6,a7
   102f0:	01178023          	sb	a7,0(a5)
   102f4:	0ff77793          	andi	a5,a4,255
   102f8:	01060023          	sb	a6,0(a2)
   102fc:	00f507b3          	add	a5,a0,a5
   10300:	0007c783          	lbu	a5,0(a5)
   10304:	fff6c703          	lbu	a4,-1(a3)
   10308:	00e7c7b3          	xor	a5,a5,a4
   1030c:	fef58fa3          	sb	a5,-1(a1)
   10310:	fbc598e3          	bne	a1,t3,102c0 <arcfour_crypt+0x2c>
   10314:	01ff0f3b          	addw	t5,t5,t6
   10318:	001f0f13          	addi	t5,t5,1
   1031c:	0fff7f93          	andi	t6,t5,255
   10320:	11f50023          	sb	t6,256(a0)
   10324:	106500a3          	sb	t1,257(a0)
   10328:	00008067          	ret

000000000001032c <initialise_benchmark>:
   1032c:	00008067          	ret

0000000000010330 <benchmark>:
   10330:	000246b7          	lui	a3,0x24
   10334:	ff010113          	addi	sp,sp,-16
   10338:	ed068793          	addi	a5,a3,-304 # 23ed0 <arcfour_ctx>
   1033c:	ed068813          	addi	a6,a3,-304
   10340:	00813423          	sd	s0,8(sp)
   10344:	ed068693          	addi	a3,a3,-304
   10348:	00000713          	li	a4,0
   1034c:	10000613          	li	a2,256
   10350:	00e68023          	sb	a4,0(a3)
   10354:	0017071b          	addiw	a4,a4,1
   10358:	00168693          	addi	a3,a3,1
   1035c:	fec71ae3          	bne	a4,a2,10350 <benchmark+0x20>
   10360:	000218b7          	lui	a7,0x21
   10364:	10078313          	addi	t1,a5,256
   10368:	00078613          	mv	a2,a5
   1036c:	00f00593          	li	a1,15
   10370:	00000693          	li	a3,0
   10374:	00000713          	li	a4,0
   10378:	ef088893          	addi	a7,a7,-272 # 20ef0 <data>
   1037c:	0080006f          	j	10384 <benchmark+0x54>
   10380:	010ec583          	lbu	a1,16(t4)
   10384:	00064503          	lbu	a0,0(a2)
   10388:	00160613          	addi	a2,a2,1
   1038c:	0017071b          	addiw	a4,a4,1
   10390:	00b505bb          	addw	a1,a0,a1
   10394:	00d586bb          	addw	a3,a1,a3
   10398:	0ff6f593          	andi	a1,a3,255
   1039c:	00b805b3          	add	a1,a6,a1
   103a0:	0005ce03          	lbu	t3,0(a1)
   103a4:	00f77713          	andi	a4,a4,15
   103a8:	00e88eb3          	add	t4,a7,a4
   103ac:	ffc60fa3          	sb	t3,-1(a2)
   103b0:	00a58023          	sb	a0,0(a1)
   103b4:	0ff6f693          	andi	a3,a3,255
   103b8:	fcc314e3          	bne	t1,a2,10380 <benchmark+0x50>
   103bc:	000245b7          	lui	a1,0x24
   103c0:	00021437          	lui	s0,0x21
   103c4:	ed158f13          	addi	t5,a1,-303 # 23ed1 <arcfour_ctx+0x1>
   103c8:	6c018e93          	addi	t4,gp,1728 # 23e98 <result>
   103cc:	ed158593          	addi	a1,a1,-303
   103d0:	00000e13          	li	t3,0
   103d4:	6c018293          	addi	t0,gp,1728 # 23e98 <result>
   103d8:	00088513          	mv	a0,a7
   103dc:	00000693          	li	a3,0
   103e0:	f0040413          	addi	s0,s0,-256 # 20f00 <key>
   103e4:	0080006f          	j	103ec <benchmark+0xbc>
   103e8:	00054e03          	lbu	t3,0(a0)
   103ec:	0005cf83          	lbu	t6,0(a1)
   103f0:	00158593          	addi	a1,a1,1
   103f4:	00128293          	addi	t0,t0,1
   103f8:	01f6873b          	addw	a4,a3,t6
   103fc:	0ff77613          	andi	a2,a4,255
   10400:	00c80633          	add	a2,a6,a2
   10404:	00064383          	lbu	t2,0(a2)
   10408:	0ff77693          	andi	a3,a4,255
   1040c:	00150513          	addi	a0,a0,1
   10410:	007f873b          	addw	a4,t6,t2
   10414:	fe758fa3          	sb	t2,-1(a1)
   10418:	0ff77713          	andi	a4,a4,255
   1041c:	01f60023          	sb	t6,0(a2)
   10420:	00e80733          	add	a4,a6,a4
   10424:	00074703          	lbu	a4,0(a4)
   10428:	00ee4e33          	xor	t3,t3,a4
   1042c:	ffc28fa3          	sb	t3,-1(t0)
   10430:	fa851ce3          	bne	a0,s0,103e8 <benchmark+0xb8>
   10434:	00078693          	mv	a3,a5
   10438:	00000713          	li	a4,0
   1043c:	10000613          	li	a2,256
   10440:	00e68023          	sb	a4,0(a3)
   10444:	0017071b          	addiw	a4,a4,1
   10448:	00168693          	addi	a3,a3,1
   1044c:	fec71ae3          	bne	a4,a2,10440 <benchmark+0x110>
   10450:	00f00613          	li	a2,15
   10454:	00000693          	li	a3,0
   10458:	00000713          	li	a4,0
   1045c:	0080006f          	j	10464 <benchmark+0x134>
   10460:	010e4603          	lbu	a2,16(t3)
   10464:	0007c583          	lbu	a1,0(a5)
   10468:	00178793          	addi	a5,a5,1
   1046c:	0017071b          	addiw	a4,a4,1
   10470:	00c5863b          	addw	a2,a1,a2
   10474:	00d606bb          	addw	a3,a2,a3
   10478:	0ff6f613          	andi	a2,a3,255
   1047c:	00c80633          	add	a2,a6,a2
   10480:	00064503          	lbu	a0,0(a2)
   10484:	00f77713          	andi	a4,a4,15
   10488:	00e88e33          	add	t3,a7,a4
   1048c:	fea78fa3          	sb	a0,-1(a5)
   10490:	00b60023          	sb	a1,0(a2)
   10494:	0ff6f693          	andi	a3,a3,255
   10498:	fcf314e3          	bne	t1,a5,10460 <benchmark+0x130>
   1049c:	000e8713          	mv	a4,t4
   104a0:	00000693          	li	a3,0
   104a4:	6d018313          	addi	t1,gp,1744 # 23ea8 <__malloc_current_mallinfo>
   104a8:	000f4583          	lbu	a1,0(t5)
   104ac:	001f0f13          	addi	t5,t5,1
   104b0:	00074883          	lbu	a7,0(a4)
   104b4:	00d587bb          	addw	a5,a1,a3
   104b8:	0ff7f613          	andi	a2,a5,255
   104bc:	00c80633          	add	a2,a6,a2
   104c0:	00064503          	lbu	a0,0(a2)
   104c4:	0ff7f693          	andi	a3,a5,255
   104c8:	00170713          	addi	a4,a4,1
   104cc:	00a587bb          	addw	a5,a1,a0
   104d0:	feaf0fa3          	sb	a0,-1(t5)
   104d4:	0ff7f793          	andi	a5,a5,255
   104d8:	00b60023          	sb	a1,0(a2)
   104dc:	00f807b3          	add	a5,a6,a5
   104e0:	0007c783          	lbu	a5,0(a5)
   104e4:	0117c7b3          	xor	a5,a5,a7
   104e8:	fef70fa3          	sb	a5,-1(a4)
   104ec:	fa671ee3          	bne	a4,t1,104a8 <benchmark+0x178>
   104f0:	01000793          	li	a5,16
   104f4:	10f80023          	sb	a5,256(a6)
   104f8:	10d800a3          	sb	a3,257(a6)
   104fc:	00813403          	ld	s0,8(sp)
   10500:	00000513          	li	a0,0
   10504:	01010113          	addi	sp,sp,16
   10508:	00008067          	ret

000000000001050c <verify_benchmark>:
   1050c:	000217b7          	lui	a5,0x21
   10510:	ef078793          	addi	a5,a5,-272 # 20ef0 <data>
   10514:	0507b703          	ld	a4,80(a5)
   10518:	0387b583          	ld	a1,56(a5)
   1051c:	0207b883          	ld	a7,32(a5)
   10520:	0287b803          	ld	a6,40(a5)
   10524:	0307b503          	ld	a0,48(a5)
   10528:	0407b603          	ld	a2,64(a5)
   1052c:	0487b683          	ld	a3,72(a5)
   10530:	0587b783          	ld	a5,88(a5)
   10534:	fc010113          	addi	sp,sp,-64
   10538:	02e13823          	sd	a4,48(sp)
   1053c:	00b13c23          	sd	a1,24(sp)
   10540:	02f13c23          	sd	a5,56(sp)
   10544:	01113023          	sd	a7,0(sp)
   10548:	01013423          	sd	a6,8(sp)
   1054c:	00a13823          	sd	a0,16(sp)
   10550:	02c13023          	sd	a2,32(sp)
   10554:	02d13423          	sd	a3,40(sp)
   10558:	6c018713          	addi	a4,gp,1728 # 23e98 <result>
   1055c:	00010793          	mv	a5,sp
   10560:	04010593          	addi	a1,sp,64
   10564:	00074603          	lbu	a2,0(a4)
   10568:	0007a683          	lw	a3,0(a5)
   1056c:	00170713          	addi	a4,a4,1
   10570:	00478793          	addi	a5,a5,4
   10574:	00d61a63          	bne	a2,a3,10588 <verify_benchmark+0x7c>
   10578:	feb796e3          	bne	a5,a1,10564 <verify_benchmark+0x58>
   1057c:	00100513          	li	a0,1
   10580:	04010113          	addi	sp,sp,64
   10584:	00008067          	ret
   10588:	00000513          	li	a0,0
   1058c:	04010113          	addi	sp,sp,64
   10590:	00008067          	ret

0000000000010594 <exit>:
   10594:	ff010113          	addi	sp,sp,-16
   10598:	00000593          	li	a1,0
   1059c:	00813023          	sd	s0,0(sp)
   105a0:	00113423          	sd	ra,8(sp)
   105a4:	00050413          	mv	s0,a0
   105a8:	2b5020ef          	jal	ra,1305c <__call_exitprocs>
   105ac:	6381b503          	ld	a0,1592(gp) # 23e10 <_global_impure_ptr>
   105b0:	05853783          	ld	a5,88(a0)
   105b4:	00078463          	beqz	a5,105bc <exit+0x28>
   105b8:	000780e7          	jalr	a5
   105bc:	00040513          	mv	a0,s0
   105c0:	3310e0ef          	jal	ra,1f0f0 <_exit>

00000000000105c4 <__libc_init_array>:
   105c4:	fe010113          	addi	sp,sp,-32
   105c8:	00813823          	sd	s0,16(sp)
   105cc:	01213023          	sd	s2,0(sp)
   105d0:	00023437          	lui	s0,0x23
   105d4:	00023937          	lui	s2,0x23
   105d8:	cc440793          	addi	a5,s0,-828 # 22cc4 <__preinit_array_end>
   105dc:	cc490913          	addi	s2,s2,-828 # 22cc4 <__preinit_array_end>
   105e0:	40f90933          	sub	s2,s2,a5
   105e4:	00113c23          	sd	ra,24(sp)
   105e8:	00913423          	sd	s1,8(sp)
   105ec:	40395913          	srai	s2,s2,0x3
   105f0:	02090063          	beqz	s2,10610 <__libc_init_array+0x4c>
   105f4:	cc440413          	addi	s0,s0,-828
   105f8:	00000493          	li	s1,0
   105fc:	00043783          	ld	a5,0(s0)
   10600:	00148493          	addi	s1,s1,1
   10604:	00840413          	addi	s0,s0,8
   10608:	000780e7          	jalr	a5
   1060c:	fe9918e3          	bne	s2,s1,105fc <__libc_init_array+0x38>
   10610:	00023437          	lui	s0,0x23
   10614:	00023937          	lui	s2,0x23
   10618:	cc840793          	addi	a5,s0,-824 # 22cc8 <__init_array_start>
   1061c:	cd890913          	addi	s2,s2,-808 # 22cd8 <__init_array_end>
   10620:	40f90933          	sub	s2,s2,a5
   10624:	40395913          	srai	s2,s2,0x3
   10628:	02090063          	beqz	s2,10648 <__libc_init_array+0x84>
   1062c:	cc840413          	addi	s0,s0,-824
   10630:	00000493          	li	s1,0
   10634:	00043783          	ld	a5,0(s0)
   10638:	00148493          	addi	s1,s1,1
   1063c:	00840413          	addi	s0,s0,8
   10640:	000780e7          	jalr	a5
   10644:	fe9918e3          	bne	s2,s1,10634 <__libc_init_array+0x70>
   10648:	01813083          	ld	ra,24(sp)
   1064c:	01013403          	ld	s0,16(sp)
   10650:	00813483          	ld	s1,8(sp)
   10654:	00013903          	ld	s2,0(sp)
   10658:	02010113          	addi	sp,sp,32
   1065c:	00008067          	ret

0000000000010660 <memset>:
   10660:	00f00313          	li	t1,15
   10664:	00050713          	mv	a4,a0
   10668:	02c37a63          	bgeu	t1,a2,1069c <memset+0x3c>
   1066c:	00f77793          	andi	a5,a4,15
   10670:	0a079063          	bnez	a5,10710 <memset+0xb0>
   10674:	06059e63          	bnez	a1,106f0 <memset+0x90>
   10678:	ff067693          	andi	a3,a2,-16
   1067c:	00f67613          	andi	a2,a2,15
   10680:	00e686b3          	add	a3,a3,a4
   10684:	00b73023          	sd	a1,0(a4)
   10688:	00b73423          	sd	a1,8(a4)
   1068c:	01070713          	addi	a4,a4,16
   10690:	fed76ae3          	bltu	a4,a3,10684 <memset+0x24>
   10694:	00061463          	bnez	a2,1069c <memset+0x3c>
   10698:	00008067          	ret
   1069c:	40c306b3          	sub	a3,t1,a2
   106a0:	00269693          	slli	a3,a3,0x2
   106a4:	00000297          	auipc	t0,0x0
   106a8:	005686b3          	add	a3,a3,t0
   106ac:	00c68067          	jr	12(a3)
   106b0:	00b70723          	sb	a1,14(a4)
   106b4:	00b706a3          	sb	a1,13(a4)
   106b8:	00b70623          	sb	a1,12(a4)
   106bc:	00b705a3          	sb	a1,11(a4)
   106c0:	00b70523          	sb	a1,10(a4)
   106c4:	00b704a3          	sb	a1,9(a4)
   106c8:	00b70423          	sb	a1,8(a4)
   106cc:	00b703a3          	sb	a1,7(a4)
   106d0:	00b70323          	sb	a1,6(a4)
   106d4:	00b702a3          	sb	a1,5(a4)
   106d8:	00b70223          	sb	a1,4(a4)
   106dc:	00b701a3          	sb	a1,3(a4)
   106e0:	00b70123          	sb	a1,2(a4)
   106e4:	00b700a3          	sb	a1,1(a4)
   106e8:	00b70023          	sb	a1,0(a4)
   106ec:	00008067          	ret
   106f0:	0ff5f593          	andi	a1,a1,255
   106f4:	00859693          	slli	a3,a1,0x8
   106f8:	00d5e5b3          	or	a1,a1,a3
   106fc:	01059693          	slli	a3,a1,0x10
   10700:	00d5e5b3          	or	a1,a1,a3
   10704:	02059693          	slli	a3,a1,0x20
   10708:	00d5e5b3          	or	a1,a1,a3
   1070c:	f6dff06f          	j	10678 <memset+0x18>
   10710:	00279693          	slli	a3,a5,0x2
   10714:	00000297          	auipc	t0,0x0
   10718:	005686b3          	add	a3,a3,t0
   1071c:	00008293          	mv	t0,ra
   10720:	f98680e7          	jalr	-104(a3)
   10724:	00028093          	mv	ra,t0
   10728:	ff078793          	addi	a5,a5,-16
   1072c:	40f70733          	sub	a4,a4,a5
   10730:	00f60633          	add	a2,a2,a5
   10734:	f6c374e3          	bgeu	t1,a2,1069c <memset+0x3c>
   10738:	f3dff06f          	j	10674 <memset+0x14>

000000000001073c <_printf_r>:
   1073c:	fb010113          	addi	sp,sp,-80
   10740:	02c13023          	sd	a2,32(sp)
   10744:	02d13423          	sd	a3,40(sp)
   10748:	02e13823          	sd	a4,48(sp)
   1074c:	02f13c23          	sd	a5,56(sp)
   10750:	05013023          	sd	a6,64(sp)
   10754:	05113423          	sd	a7,72(sp)
   10758:	00058613          	mv	a2,a1
   1075c:	01053583          	ld	a1,16(a0)
   10760:	02010693          	addi	a3,sp,32
   10764:	00113c23          	sd	ra,24(sp)
   10768:	00d13423          	sd	a3,8(sp)
   1076c:	05c000ef          	jal	ra,107c8 <_vfprintf_r>
   10770:	01813083          	ld	ra,24(sp)
   10774:	05010113          	addi	sp,sp,80
   10778:	00008067          	ret

000000000001077c <printf>:
   1077c:	6481b303          	ld	t1,1608(gp) # 23e20 <_impure_ptr>
   10780:	fa010113          	addi	sp,sp,-96
   10784:	02c13823          	sd	a2,48(sp)
   10788:	02d13c23          	sd	a3,56(sp)
   1078c:	02b13423          	sd	a1,40(sp)
   10790:	04e13023          	sd	a4,64(sp)
   10794:	04f13423          	sd	a5,72(sp)
   10798:	05013823          	sd	a6,80(sp)
   1079c:	05113c23          	sd	a7,88(sp)
   107a0:	01033583          	ld	a1,16(t1) # 10210 <start_trigger>
   107a4:	02810693          	addi	a3,sp,40
   107a8:	00050613          	mv	a2,a0
   107ac:	00030513          	mv	a0,t1
   107b0:	00113c23          	sd	ra,24(sp)
   107b4:	00d13423          	sd	a3,8(sp)
   107b8:	010000ef          	jal	ra,107c8 <_vfprintf_r>
   107bc:	01813083          	ld	ra,24(sp)
   107c0:	06010113          	addi	sp,sp,96
   107c4:	00008067          	ret

00000000000107c8 <_vfprintf_r>:
   107c8:	d8010113          	addi	sp,sp,-640
   107cc:	26113c23          	sd	ra,632(sp)
   107d0:	25613023          	sd	s6,576(sp)
   107d4:	23713c23          	sd	s7,568(sp)
   107d8:	23813823          	sd	s8,560(sp)
   107dc:	00058b93          	mv	s7,a1
   107e0:	00060b13          	mv	s6,a2
   107e4:	00d13423          	sd	a3,8(sp)
   107e8:	26813823          	sd	s0,624(sp)
   107ec:	26913423          	sd	s1,616(sp)
   107f0:	27213023          	sd	s2,608(sp)
   107f4:	25313c23          	sd	s3,600(sp)
   107f8:	25413823          	sd	s4,592(sp)
   107fc:	25513423          	sd	s5,584(sp)
   10800:	23913423          	sd	s9,552(sp)
   10804:	23a13023          	sd	s10,544(sp)
   10808:	21b13c23          	sd	s11,536(sp)
   1080c:	00050c13          	mv	s8,a0
   10810:	1a0060ef          	jal	ra,169b0 <_localeconv_r>
   10814:	00053783          	ld	a5,0(a0)
   10818:	00078513          	mv	a0,a5
   1081c:	04f13023          	sd	a5,64(sp)
   10820:	434080ef          	jal	ra,18c54 <strlen>
   10824:	02a13c23          	sd	a0,56(sp)
   10828:	10013023          	sd	zero,256(sp)
   1082c:	10013423          	sd	zero,264(sp)
   10830:	000c0663          	beqz	s8,1083c <_vfprintf_r+0x74>
   10834:	050c2783          	lw	a5,80(s8)
   10838:	78078863          	beqz	a5,10fc8 <_vfprintf_r+0x800>
   1083c:	010b9703          	lh	a4,16(s7)
   10840:	03071793          	slli	a5,a4,0x30
   10844:	03271693          	slli	a3,a4,0x32
   10848:	0307d793          	srli	a5,a5,0x30
   1084c:	0206ca63          	bltz	a3,10880 <_vfprintf_r+0xb8>
   10850:	000027b7          	lui	a5,0x2
   10854:	0acba683          	lw	a3,172(s7)
   10858:	00f767b3          	or	a5,a4,a5
   1085c:	0107979b          	slliw	a5,a5,0x10
   10860:	ffffe737          	lui	a4,0xffffe
   10864:	4107d79b          	sraiw	a5,a5,0x10
   10868:	fff70713          	addi	a4,a4,-1 # ffffffffffffdfff <__BSS_END__+0xfffffffffffda027>
   1086c:	00e6f733          	and	a4,a3,a4
   10870:	00fb9823          	sh	a5,16(s7)
   10874:	03079793          	slli	a5,a5,0x30
   10878:	0aeba623          	sw	a4,172(s7)
   1087c:	0307d793          	srli	a5,a5,0x30
   10880:	0087f713          	andi	a4,a5,8
   10884:	32070c63          	beqz	a4,10bbc <_vfprintf_r+0x3f4>
   10888:	018bb703          	ld	a4,24(s7)
   1088c:	32070863          	beqz	a4,10bbc <_vfprintf_r+0x3f4>
   10890:	01a7f793          	andi	a5,a5,26
   10894:	00a00713          	li	a4,10
   10898:	34e78463          	beq	a5,a4,10be0 <_vfprintf_r+0x418>
   1089c:	000217b7          	lui	a5,0x21
   108a0:	1687b783          	ld	a5,360(a5) # 21168 <zeroes.4519+0x38>
   108a4:	000b0d13          	mv	s10,s6
   108a8:	12013023          	sd	zero,288(sp)
   108ac:	08f13823          	sd	a5,144(sp)
   108b0:	000217b7          	lui	a5,0x21
   108b4:	1487b783          	ld	a5,328(a5) # 21148 <zeroes.4519+0x18>
   108b8:	10012c23          	sw	zero,280(sp)
   108bc:	02013023          	sd	zero,32(sp)
   108c0:	08f13023          	sd	a5,128(sp)
   108c4:	000217b7          	lui	a5,0x21
   108c8:	1587b783          	ld	a5,344(a5) # 21158 <zeroes.4519+0x28>
   108cc:	04013423          	sd	zero,72(sp)
   108d0:	04013823          	sd	zero,80(sp)
   108d4:	08f13423          	sd	a5,136(sp)
   108d8:	19010793          	addi	a5,sp,400
   108dc:	10f13823          	sd	a5,272(sp)
   108e0:	00078313          	mv	t1,a5
   108e4:	000d4783          	lbu	a5,0(s10)
   108e8:	06013023          	sd	zero,96(sp)
   108ec:	06013c23          	sd	zero,120(sp)
   108f0:	04013c23          	sd	zero,88(sp)
   108f4:	00013023          	sd	zero,0(sp)
   108f8:	24078c63          	beqz	a5,10b50 <_vfprintf_r+0x388>
   108fc:	000d0413          	mv	s0,s10
   10900:	02500713          	li	a4,37
   10904:	30e78063          	beq	a5,a4,10c04 <_vfprintf_r+0x43c>
   10908:	00144783          	lbu	a5,1(s0)
   1090c:	00140413          	addi	s0,s0,1
   10910:	fe079ae3          	bnez	a5,10904 <_vfprintf_r+0x13c>
   10914:	41a404bb          	subw	s1,s0,s10
   10918:	22048c63          	beqz	s1,10b50 <_vfprintf_r+0x388>
   1091c:	12013703          	ld	a4,288(sp)
   10920:	11812783          	lw	a5,280(sp)
   10924:	01a33023          	sd	s10,0(t1)
   10928:	00970733          	add	a4,a4,s1
   1092c:	0017879b          	addiw	a5,a5,1
   10930:	00933423          	sd	s1,8(t1)
   10934:	12e13023          	sd	a4,288(sp)
   10938:	10f12c23          	sw	a5,280(sp)
   1093c:	0007871b          	sext.w	a4,a5
   10940:	00700793          	li	a5,7
   10944:	01030313          	addi	t1,t1,16
   10948:	2ce7c663          	blt	a5,a4,10c14 <_vfprintf_r+0x44c>
   1094c:	00013703          	ld	a4,0(sp)
   10950:	00044783          	lbu	a5,0(s0)
   10954:	0097073b          	addw	a4,a4,s1
   10958:	00e13023          	sd	a4,0(sp)
   1095c:	1e078a63          	beqz	a5,10b50 <_vfprintf_r+0x388>
   10960:	000217b7          	lui	a5,0x21
   10964:	00144e83          	lbu	t4,1(s0)
   10968:	0c010fa3          	sb	zero,223(sp)
   1096c:	00140413          	addi	s0,s0,1
   10970:	fff00d93          	li	s11,-1
   10974:	00000913          	li	s2,0
   10978:	00000493          	li	s1,0
   1097c:	05a00993          	li	s3,90
   10980:	fb078a13          	addi	s4,a5,-80 # 20fb0 <key+0xb0>
   10984:	00900b13          	li	s6,9
   10988:	00030c93          	mv	s9,t1
   1098c:	00140413          	addi	s0,s0,1
   10990:	000e8a9b          	sext.w	s5,t4
   10994:	02a00693          	li	a3,42
   10998:	fe0a879b          	addiw	a5,s5,-32
   1099c:	0007871b          	sext.w	a4,a5
   109a0:	04e9e863          	bltu	s3,a4,109f0 <_vfprintf_r+0x228>
   109a4:	02079793          	slli	a5,a5,0x20
   109a8:	01e7d793          	srli	a5,a5,0x1e
   109ac:	014787b3          	add	a5,a5,s4
   109b0:	0007a783          	lw	a5,0(a5)
   109b4:	00078067          	jr	a5
   109b8:	00000913          	li	s2,0
   109bc:	00044703          	lbu	a4,0(s0)
   109c0:	0029179b          	slliw	a5,s2,0x2
   109c4:	012787bb          	addw	a5,a5,s2
   109c8:	fd0a8a9b          	addiw	s5,s5,-48
   109cc:	0017979b          	slliw	a5,a5,0x1
   109d0:	fd07061b          	addiw	a2,a4,-48
   109d4:	00fa893b          	addw	s2,s5,a5
   109d8:	00140413          	addi	s0,s0,1
   109dc:	00070a9b          	sext.w	s5,a4
   109e0:	fccb7ee3          	bgeu	s6,a2,109bc <_vfprintf_r+0x1f4>
   109e4:	fe0a879b          	addiw	a5,s5,-32
   109e8:	0007871b          	sext.w	a4,a5
   109ec:	fae9fce3          	bgeu	s3,a4,109a4 <_vfprintf_r+0x1dc>
   109f0:	000c8313          	mv	t1,s9
   109f4:	140a8e63          	beqz	s5,10b50 <_vfprintf_r+0x388>
   109f8:	13510423          	sb	s5,296(sp)
   109fc:	0c010fa3          	sb	zero,223(sp)
   10a00:	00100993          	li	s3,1
   10a04:	00100a13          	li	s4,1
   10a08:	12810d13          	addi	s10,sp,296
   10a0c:	00013823          	sd	zero,16(sp)
   10a10:	00000d93          	li	s11,0
   10a14:	02013823          	sd	zero,48(sp)
   10a18:	02013423          	sd	zero,40(sp)
   10a1c:	00013c23          	sd	zero,24(sp)
   10a20:	0024f793          	andi	a5,s1,2
   10a24:	00078c9b          	sext.w	s9,a5
   10a28:	00078463          	beqz	a5,10a30 <_vfprintf_r+0x268>
   10a2c:	0029899b          	addiw	s3,s3,2
   10a30:	0844fb13          	andi	s6,s1,132
   10a34:	12013783          	ld	a5,288(sp)
   10a38:	000b1663          	bnez	s6,10a44 <_vfprintf_r+0x27c>
   10a3c:	413906bb          	subw	a3,s2,s3
   10a40:	60d04ce3          	bgtz	a3,11858 <_vfprintf_r+0x1090>
   10a44:	0df14703          	lbu	a4,223(sp)
   10a48:	02070c63          	beqz	a4,10a80 <_vfprintf_r+0x2b8>
   10a4c:	11812703          	lw	a4,280(sp)
   10a50:	0df10693          	addi	a3,sp,223
   10a54:	00d33023          	sd	a3,0(t1)
   10a58:	0017071b          	addiw	a4,a4,1
   10a5c:	00100693          	li	a3,1
   10a60:	00178793          	addi	a5,a5,1
   10a64:	00d33423          	sd	a3,8(t1)
   10a68:	10e12c23          	sw	a4,280(sp)
   10a6c:	0007069b          	sext.w	a3,a4
   10a70:	12f13023          	sd	a5,288(sp)
   10a74:	00700713          	li	a4,7
   10a78:	01030313          	addi	t1,t1,16
   10a7c:	48d74463          	blt	a4,a3,10f04 <_vfprintf_r+0x73c>
   10a80:	020c8c63          	beqz	s9,10ab8 <_vfprintf_r+0x2f0>
   10a84:	11812703          	lw	a4,280(sp)
   10a88:	0e010693          	addi	a3,sp,224
   10a8c:	00d33023          	sd	a3,0(t1)
   10a90:	0017071b          	addiw	a4,a4,1
   10a94:	00200693          	li	a3,2
   10a98:	00278793          	addi	a5,a5,2
   10a9c:	00d33423          	sd	a3,8(t1)
   10aa0:	10e12c23          	sw	a4,280(sp)
   10aa4:	0007069b          	sext.w	a3,a4
   10aa8:	12f13023          	sd	a5,288(sp)
   10aac:	00700713          	li	a4,7
   10ab0:	01030313          	addi	t1,t1,16
   10ab4:	6ad74ee3          	blt	a4,a3,11970 <_vfprintf_r+0x11a8>
   10ab8:	08000713          	li	a4,128
   10abc:	2aeb0ce3          	beq	s6,a4,11574 <_vfprintf_r+0xdac>
   10ac0:	414d8dbb          	subw	s11,s11,s4
   10ac4:	37b04ae3          	bgtz	s11,11638 <_vfprintf_r+0xe70>
   10ac8:	1004f713          	andi	a4,s1,256
   10acc:	180714e3          	bnez	a4,11454 <_vfprintf_r+0xc8c>
   10ad0:	11812703          	lw	a4,280(sp)
   10ad4:	014787b3          	add	a5,a5,s4
   10ad8:	01a33023          	sd	s10,0(t1)
   10adc:	0017069b          	addiw	a3,a4,1
   10ae0:	00068713          	mv	a4,a3
   10ae4:	01433423          	sd	s4,8(t1)
   10ae8:	10e12c23          	sw	a4,280(sp)
   10aec:	12f13023          	sd	a5,288(sp)
   10af0:	00700713          	li	a4,7
   10af4:	4ad74a63          	blt	a4,a3,10fa8 <_vfprintf_r+0x7e0>
   10af8:	01030313          	addi	t1,t1,16
   10afc:	0044f493          	andi	s1,s1,4
   10b00:	00048663          	beqz	s1,10b0c <_vfprintf_r+0x344>
   10b04:	413904bb          	subw	s1,s2,s3
   10b08:	689044e3          	bgtz	s1,11990 <_vfprintf_r+0x11c8>
   10b0c:	00090713          	mv	a4,s2
   10b10:	01395463          	bge	s2,s3,10b18 <_vfprintf_r+0x350>
   10b14:	00098713          	mv	a4,s3
   10b18:	00013683          	ld	a3,0(sp)
   10b1c:	00d7073b          	addw	a4,a4,a3
   10b20:	00e13023          	sd	a4,0(sp)
   10b24:	3c0796e3          	bnez	a5,116f0 <_vfprintf_r+0xf28>
   10b28:	01013783          	ld	a5,16(sp)
   10b2c:	10012c23          	sw	zero,280(sp)
   10b30:	00078863          	beqz	a5,10b40 <_vfprintf_r+0x378>
   10b34:	01013583          	ld	a1,16(sp)
   10b38:	000c0513          	mv	a0,s8
   10b3c:	611020ef          	jal	ra,1394c <_free_r>
   10b40:	19010313          	addi	t1,sp,400
   10b44:	00040d13          	mv	s10,s0
   10b48:	000d4783          	lbu	a5,0(s10)
   10b4c:	da0798e3          	bnez	a5,108fc <_vfprintf_r+0x134>
   10b50:	12013783          	ld	a5,288(sp)
   10b54:	00078463          	beqz	a5,10b5c <_vfprintf_r+0x394>
   10b58:	1710106f          	j	124c8 <_vfprintf_r+0x1d00>
   10b5c:	010bd783          	lhu	a5,16(s7)
   10b60:	0407f793          	andi	a5,a5,64
   10b64:	00078463          	beqz	a5,10b6c <_vfprintf_r+0x3a4>
   10b68:	7290106f          	j	12a90 <_vfprintf_r+0x22c8>
   10b6c:	27813083          	ld	ra,632(sp)
   10b70:	27013403          	ld	s0,624(sp)
   10b74:	00013503          	ld	a0,0(sp)
   10b78:	26813483          	ld	s1,616(sp)
   10b7c:	26013903          	ld	s2,608(sp)
   10b80:	25813983          	ld	s3,600(sp)
   10b84:	25013a03          	ld	s4,592(sp)
   10b88:	24813a83          	ld	s5,584(sp)
   10b8c:	24013b03          	ld	s6,576(sp)
   10b90:	23813b83          	ld	s7,568(sp)
   10b94:	23013c03          	ld	s8,560(sp)
   10b98:	22813c83          	ld	s9,552(sp)
   10b9c:	22013d03          	ld	s10,544(sp)
   10ba0:	21813d83          	ld	s11,536(sp)
   10ba4:	28010113          	addi	sp,sp,640
   10ba8:	00008067          	ret
   10bac:	0104e493          	ori	s1,s1,16
   10bb0:	00044e83          	lbu	t4,0(s0)
   10bb4:	0004849b          	sext.w	s1,s1
   10bb8:	dd5ff06f          	j	1098c <_vfprintf_r+0x1c4>
   10bbc:	000b8593          	mv	a1,s7
   10bc0:	000c0513          	mv	a0,s8
   10bc4:	33c020ef          	jal	ra,12f00 <__swsetup_r>
   10bc8:	00050463          	beqz	a0,10bd0 <_vfprintf_r+0x408>
   10bcc:	6c50106f          	j	12a90 <_vfprintf_r+0x22c8>
   10bd0:	010bd783          	lhu	a5,16(s7)
   10bd4:	00a00713          	li	a4,10
   10bd8:	01a7f793          	andi	a5,a5,26
   10bdc:	cce790e3          	bne	a5,a4,1089c <_vfprintf_r+0xd4>
   10be0:	012b9783          	lh	a5,18(s7)
   10be4:	ca07cce3          	bltz	a5,1089c <_vfprintf_r+0xd4>
   10be8:	00813683          	ld	a3,8(sp)
   10bec:	000b0613          	mv	a2,s6
   10bf0:	000b8593          	mv	a1,s7
   10bf4:	000c0513          	mv	a0,s8
   10bf8:	248020ef          	jal	ra,12e40 <__sbprintf>
   10bfc:	00a13023          	sd	a0,0(sp)
   10c00:	f6dff06f          	j	10b6c <_vfprintf_r+0x3a4>
   10c04:	41a404bb          	subw	s1,s0,s10
   10c08:	d0049ae3          	bnez	s1,1091c <_vfprintf_r+0x154>
   10c0c:	00044783          	lbu	a5,0(s0)
   10c10:	d4dff06f          	j	1095c <_vfprintf_r+0x194>
   10c14:	11010613          	addi	a2,sp,272
   10c18:	000b8593          	mv	a1,s7
   10c1c:	000c0513          	mv	a0,s8
   10c20:	0990a0ef          	jal	ra,1b4b8 <__sprint_r>
   10c24:	f2051ce3          	bnez	a0,10b5c <_vfprintf_r+0x394>
   10c28:	19010313          	addi	t1,sp,400
   10c2c:	d21ff06f          	j	1094c <_vfprintf_r+0x184>
   10c30:	0084f793          	andi	a5,s1,8
   10c34:	000c8313          	mv	t1,s9
   10c38:	00078463          	beqz	a5,10c40 <_vfprintf_r+0x478>
   10c3c:	1140106f          	j	11d50 <_vfprintf_r+0x1588>
   10c40:	00813783          	ld	a5,8(sp)
   10c44:	01913823          	sd	s9,16(sp)
   10c48:	0007b503          	ld	a0,0(a5)
   10c4c:	00878c93          	addi	s9,a5,8
   10c50:	01913423          	sd	s9,8(sp)
   10c54:	7a90f0ef          	jal	ra,20bfc <__extenddftf2>
   10c58:	01013303          	ld	t1,16(sp)
   10c5c:	10a13023          	sd	a0,256(sp)
   10c60:	10b13423          	sd	a1,264(sp)
   10c64:	10010513          	addi	a0,sp,256
   10c68:	00613823          	sd	t1,16(sp)
   10c6c:	4e9050ef          	jal	ra,16954 <_ldcheck>
   10c70:	0ea12423          	sw	a0,232(sp)
   10c74:	00200793          	li	a5,2
   10c78:	01013303          	ld	t1,16(sp)
   10c7c:	00f51463          	bne	a0,a5,10c84 <_vfprintf_r+0x4bc>
   10c80:	3fc0106f          	j	1207c <_vfprintf_r+0x18b4>
   10c84:	00100793          	li	a5,1
   10c88:	00f51463          	bne	a0,a5,10c90 <_vfprintf_r+0x4c8>
   10c8c:	4ec0106f          	j	12178 <_vfprintf_r+0x19b0>
   10c90:	06100793          	li	a5,97
   10c94:	00fa9463          	bne	s5,a5,10c9c <_vfprintf_r+0x4d4>
   10c98:	6e50106f          	j	12b7c <_vfprintf_r+0x23b4>
   10c9c:	04100793          	li	a5,65
   10ca0:	00fa9463          	bne	s5,a5,10ca8 <_vfprintf_r+0x4e0>
   10ca4:	0390106f          	j	124dc <_vfprintf_r+0x1d14>
   10ca8:	fdfaf713          	andi	a4,s5,-33
   10cac:	fff00793          	li	a5,-1
   10cb0:	02e13423          	sd	a4,40(sp)
   10cb4:	00fd9463          	bne	s11,a5,10cbc <_vfprintf_r+0x4f4>
   10cb8:	7410106f          	j	12bf8 <_vfprintf_r+0x2430>
   10cbc:	04700793          	li	a5,71
   10cc0:	00f71463          	bne	a4,a5,10cc8 <_vfprintf_r+0x500>
   10cc4:	6d50106f          	j	12b98 <_vfprintf_r+0x23d0>
   10cc8:	10813a03          	ld	s4,264(sp)
   10ccc:	1004e793          	ori	a5,s1,256
   10cd0:	02913823          	sd	s1,48(sp)
   10cd4:	10013b03          	ld	s6,256(sp)
   10cd8:	0007879b          	sext.w	a5,a5
   10cdc:	000a5463          	bgez	s4,10ce4 <_vfprintf_r+0x51c>
   10ce0:	7590106f          	j	12c38 <_vfprintf_r+0x2470>
   10ce4:	06013423          	sd	zero,104(sp)
   10ce8:	00078493          	mv	s1,a5
   10cec:	00013823          	sd	zero,16(sp)
   10cf0:	0007071b          	sext.w	a4,a4
   10cf4:	04600793          	li	a5,70
   10cf8:	00f71463          	bne	a4,a5,10d00 <_vfprintf_r+0x538>
   10cfc:	3b50106f          	j	128b0 <_vfprintf_r+0x20e8>
   10d00:	02813703          	ld	a4,40(sp)
   10d04:	04500793          	li	a5,69
   10d08:	00613c23          	sd	t1,24(sp)
   10d0c:	00f70463          	beq	a4,a5,10d14 <_vfprintf_r+0x54c>
   10d10:	3250106f          	j	12834 <_vfprintf_r+0x206c>
   10d14:	001d899b          	addiw	s3,s11,1
   10d18:	00098713          	mv	a4,s3
   10d1c:	0f810893          	addi	a7,sp,248
   10d20:	0ec10813          	addi	a6,sp,236
   10d24:	0e810793          	addi	a5,sp,232
   10d28:	00200693          	li	a3,2
   10d2c:	000b0593          	mv	a1,s6
   10d30:	000a0613          	mv	a2,s4
   10d34:	000c0513          	mv	a0,s8
   10d38:	179040ef          	jal	ra,156b0 <_ldtoa_r>
   10d3c:	01813303          	ld	t1,24(sp)
   10d40:	00050d13          	mv	s10,a0
   10d44:	013509b3          	add	s3,a0,s3
   10d48:	00000693          	li	a3,0
   10d4c:	00000613          	li	a2,0
   10d50:	000b0513          	mv	a0,s6
   10d54:	000a0593          	mv	a1,s4
   10d58:	00613c23          	sd	t1,24(sp)
   10d5c:	5050e0ef          	jal	ra,1fa60 <__eqtf2>
   10d60:	01813303          	ld	t1,24(sp)
   10d64:	00098693          	mv	a3,s3
   10d68:	02050263          	beqz	a0,10d8c <_vfprintf_r+0x5c4>
   10d6c:	0f813683          	ld	a3,248(sp)
   10d70:	0136fe63          	bgeu	a3,s3,10d8c <_vfprintf_r+0x5c4>
   10d74:	03000713          	li	a4,48
   10d78:	00168793          	addi	a5,a3,1
   10d7c:	0ef13c23          	sd	a5,248(sp)
   10d80:	00e68023          	sb	a4,0(a3)
   10d84:	0f813683          	ld	a3,248(sp)
   10d88:	ff36e8e3          	bltu	a3,s3,10d78 <_vfprintf_r+0x5b0>
   10d8c:	41a687bb          	subw	a5,a3,s10
   10d90:	02f13023          	sd	a5,32(sp)
   10d94:	0e812703          	lw	a4,232(sp)
   10d98:	04700793          	li	a5,71
   10d9c:	00e13c23          	sd	a4,24(sp)
   10da0:	02813703          	ld	a4,40(sp)
   10da4:	00f71463          	bne	a4,a5,10dac <_vfprintf_r+0x5e4>
   10da8:	1a10106f          	j	12748 <_vfprintf_r+0x1f80>
   10dac:	02813703          	ld	a4,40(sp)
   10db0:	04600793          	li	a5,70
   10db4:	00f71463          	bne	a4,a5,10dbc <_vfprintf_r+0x5f4>
   10db8:	3b50106f          	j	1296c <_vfprintf_r+0x21a4>
   10dbc:	01813783          	ld	a5,24(sp)
   10dc0:	02813583          	ld	a1,40(sp)
   10dc4:	04100613          	li	a2,65
   10dc8:	fff7879b          	addiw	a5,a5,-1
   10dcc:	0ef12423          	sw	a5,232(sp)
   10dd0:	0ffaf713          	andi	a4,s5,255
   10dd4:	00000693          	li	a3,0
   10dd8:	00c59863          	bne	a1,a2,10de8 <_vfprintf_r+0x620>
   10ddc:	00f7071b          	addiw	a4,a4,15
   10de0:	0ff77713          	andi	a4,a4,255
   10de4:	00100693          	li	a3,1
   10de8:	0ee10823          	sb	a4,240(sp)
   10dec:	02b00713          	li	a4,43
   10df0:	0007da63          	bgez	a5,10e04 <_vfprintf_r+0x63c>
   10df4:	01813703          	ld	a4,24(sp)
   10df8:	00100793          	li	a5,1
   10dfc:	40e787bb          	subw	a5,a5,a4
   10e00:	02d00713          	li	a4,45
   10e04:	0ee108a3          	sb	a4,241(sp)
   10e08:	00900713          	li	a4,9
   10e0c:	00f74463          	blt	a4,a5,10e14 <_vfprintf_r+0x64c>
   10e10:	6d90106f          	j	12ce8 <_vfprintf_r+0x2520>
   10e14:	0ff10513          	addi	a0,sp,255
   10e18:	00050593          	mv	a1,a0
   10e1c:	00a00693          	li	a3,10
   10e20:	06300e13          	li	t3,99
   10e24:	02d7e73b          	remw	a4,a5,a3
   10e28:	00058613          	mv	a2,a1
   10e2c:	00078813          	mv	a6,a5
   10e30:	fff58593          	addi	a1,a1,-1
   10e34:	0307071b          	addiw	a4,a4,48
   10e38:	fee60fa3          	sb	a4,-1(a2)
   10e3c:	02d7c7bb          	divw	a5,a5,a3
   10e40:	ff0e42e3          	blt	t3,a6,10e24 <_vfprintf_r+0x65c>
   10e44:	0307879b          	addiw	a5,a5,48
   10e48:	0ff7f693          	andi	a3,a5,255
   10e4c:	fed58fa3          	sb	a3,-1(a1)
   10e50:	ffe60793          	addi	a5,a2,-2
   10e54:	00a7e463          	bltu	a5,a0,10e5c <_vfprintf_r+0x694>
   10e58:	7b50106f          	j	12e0c <_vfprintf_r+0x2644>
   10e5c:	0f210713          	addi	a4,sp,242
   10e60:	0080006f          	j	10e68 <_vfprintf_r+0x6a0>
   10e64:	0007c683          	lbu	a3,0(a5)
   10e68:	00d70023          	sb	a3,0(a4)
   10e6c:	00178793          	addi	a5,a5,1
   10e70:	00170713          	addi	a4,a4,1
   10e74:	fea798e3          	bne	a5,a0,10e64 <_vfprintf_r+0x69c>
   10e78:	10110793          	addi	a5,sp,257
   10e7c:	0f210713          	addi	a4,sp,242
   10e80:	40c787b3          	sub	a5,a5,a2
   10e84:	00f707b3          	add	a5,a4,a5
   10e88:	0f010713          	addi	a4,sp,240
   10e8c:	40e787bb          	subw	a5,a5,a4
   10e90:	04f13823          	sd	a5,80(sp)
   10e94:	05013783          	ld	a5,80(sp)
   10e98:	02013683          	ld	a3,32(sp)
   10e9c:	00100713          	li	a4,1
   10ea0:	00f68a3b          	addw	s4,a3,a5
   10ea4:	000a0793          	mv	a5,s4
   10ea8:	00d74463          	blt	a4,a3,10eb0 <_vfprintf_r+0x6e8>
   10eac:	6cd0106f          	j	12d78 <_vfprintf_r+0x25b0>
   10eb0:	03813703          	ld	a4,56(sp)
   10eb4:	00e78a3b          	addw	s4,a5,a4
   10eb8:	03013783          	ld	a5,48(sp)
   10ebc:	fffa4993          	not	s3,s4
   10ec0:	43f9d993          	srai	s3,s3,0x3f
   10ec4:	bff7f493          	andi	s1,a5,-1025
   10ec8:	0004849b          	sext.w	s1,s1
   10ecc:	013a79b3          	and	s3,s4,s3
   10ed0:	1004e493          	ori	s1,s1,256
   10ed4:	0009899b          	sext.w	s3,s3
   10ed8:	02013823          	sd	zero,48(sp)
   10edc:	02013423          	sd	zero,40(sp)
   10ee0:	00013c23          	sd	zero,24(sp)
   10ee4:	06813783          	ld	a5,104(sp)
   10ee8:	00079463          	bnez	a5,10ef0 <_vfprintf_r+0x728>
   10eec:	0d50106f          	j	127c0 <_vfprintf_r+0x1ff8>
   10ef0:	02d00793          	li	a5,45
   10ef4:	0cf10fa3          	sb	a5,223(sp)
   10ef8:	00000d93          	li	s11,0
   10efc:	0019899b          	addiw	s3,s3,1
   10f00:	b21ff06f          	j	10a20 <_vfprintf_r+0x258>
   10f04:	11010613          	addi	a2,sp,272
   10f08:	000b8593          	mv	a1,s7
   10f0c:	000c0513          	mv	a0,s8
   10f10:	5a80a0ef          	jal	ra,1b4b8 <__sprint_r>
   10f14:	7e051863          	bnez	a0,11704 <_vfprintf_r+0xf3c>
   10f18:	12013783          	ld	a5,288(sp)
   10f1c:	19010313          	addi	t1,sp,400
   10f20:	b61ff06f          	j	10a80 <_vfprintf_r+0x2b8>
   10f24:	04013703          	ld	a4,64(sp)
   10f28:	03813683          	ld	a3,56(sp)
   10f2c:	01030313          	addi	t1,t1,16
   10f30:	fee33823          	sd	a4,-16(t1)
   10f34:	11812703          	lw	a4,280(sp)
   10f38:	00d787b3          	add	a5,a5,a3
   10f3c:	fed33c23          	sd	a3,-8(t1)
   10f40:	0017071b          	addiw	a4,a4,1
   10f44:	0007069b          	sext.w	a3,a4
   10f48:	10e12c23          	sw	a4,280(sp)
   10f4c:	12f13023          	sd	a5,288(sp)
   10f50:	00700713          	li	a4,7
   10f54:	02d75463          	bge	a4,a3,10f7c <_vfprintf_r+0x7b4>
   10f58:	11010613          	addi	a2,sp,272
   10f5c:	000b8593          	mv	a1,s7
   10f60:	000c0513          	mv	a0,s8
   10f64:	5540a0ef          	jal	ra,1b4b8 <__sprint_r>
   10f68:	78051e63          	bnez	a0,11704 <_vfprintf_r+0xf3c>
   10f6c:	0e812603          	lw	a2,232(sp)
   10f70:	12013783          	ld	a5,288(sp)
   10f74:	11812683          	lw	a3,280(sp)
   10f78:	19010313          	addi	t1,sp,400
   10f7c:	00065463          	bgez	a2,10f84 <_vfprintf_r+0x7bc>
   10f80:	2a10106f          	j	12a20 <_vfprintf_r+0x2258>
   10f84:	02013703          	ld	a4,32(sp)
   10f88:	0016861b          	addiw	a2,a3,1
   10f8c:	01a33023          	sd	s10,0(t1)
   10f90:	00f707b3          	add	a5,a4,a5
   10f94:	00e33423          	sd	a4,8(t1)
   10f98:	12f13023          	sd	a5,288(sp)
   10f9c:	10c12c23          	sw	a2,280(sp)
   10fa0:	00700713          	li	a4,7
   10fa4:	b4c75ae3          	bge	a4,a2,10af8 <_vfprintf_r+0x330>
   10fa8:	11010613          	addi	a2,sp,272
   10fac:	000b8593          	mv	a1,s7
   10fb0:	000c0513          	mv	a0,s8
   10fb4:	5040a0ef          	jal	ra,1b4b8 <__sprint_r>
   10fb8:	74051663          	bnez	a0,11704 <_vfprintf_r+0xf3c>
   10fbc:	12013783          	ld	a5,288(sp)
   10fc0:	19010313          	addi	t1,sp,400
   10fc4:	b39ff06f          	j	10afc <_vfprintf_r+0x334>
   10fc8:	000c0513          	mv	a0,s8
   10fcc:	7b0020ef          	jal	ra,1377c <__sinit>
   10fd0:	86dff06f          	j	1083c <_vfprintf_r+0x74>
   10fd4:	00813703          	ld	a4,8(sp)
   10fd8:	000c8313          	mv	t1,s9
   10fdc:	0c010fa3          	sb	zero,223(sp)
   10fe0:	00072783          	lw	a5,0(a4)
   10fe4:	00870713          	addi	a4,a4,8
   10fe8:	00e13423          	sd	a4,8(sp)
   10fec:	12f10423          	sb	a5,296(sp)
   10ff0:	00100993          	li	s3,1
   10ff4:	00100a13          	li	s4,1
   10ff8:	12810d13          	addi	s10,sp,296
   10ffc:	a11ff06f          	j	10a0c <_vfprintf_r+0x244>
   11000:	00813783          	ld	a5,8(sp)
   11004:	0c010fa3          	sb	zero,223(sp)
   11008:	000c8313          	mv	t1,s9
   1100c:	0007bd03          	ld	s10,0(a5)
   11010:	00878c93          	addi	s9,a5,8
   11014:	680d0ae3          	beqz	s10,11ea8 <_vfprintf_r+0x16e0>
   11018:	fff00793          	li	a5,-1
   1101c:	00fd9463          	bne	s11,a5,11024 <_vfprintf_r+0x85c>
   11020:	0bc0106f          	j	120dc <_vfprintf_r+0x1914>
   11024:	000d8613          	mv	a2,s11
   11028:	00000593          	li	a1,0
   1102c:	000d0513          	mv	a0,s10
   11030:	00613423          	sd	t1,8(sp)
   11034:	48c060ef          	jal	ra,174c0 <memchr>
   11038:	00a13823          	sd	a0,16(sp)
   1103c:	00813303          	ld	t1,8(sp)
   11040:	00051463          	bnez	a0,11048 <_vfprintf_r+0x880>
   11044:	0fd0106f          	j	12940 <_vfprintf_r+0x2178>
   11048:	01013783          	ld	a5,16(sp)
   1104c:	01913423          	sd	s9,8(sp)
   11050:	00013823          	sd	zero,16(sp)
   11054:	41a78a3b          	subw	s4,a5,s10
   11058:	fffa4993          	not	s3,s4
   1105c:	0df14783          	lbu	a5,223(sp)
   11060:	43f9d993          	srai	s3,s3,0x3f
   11064:	013a79b3          	and	s3,s4,s3
   11068:	02013823          	sd	zero,48(sp)
   1106c:	02013423          	sd	zero,40(sp)
   11070:	00013c23          	sd	zero,24(sp)
   11074:	0009899b          	sext.w	s3,s3
   11078:	00000d93          	li	s11,0
   1107c:	9a0782e3          	beqz	a5,10a20 <_vfprintf_r+0x258>
   11080:	0019899b          	addiw	s3,s3,1
   11084:	99dff06f          	j	10a20 <_vfprintf_r+0x258>
   11088:	00044e83          	lbu	t4,0(s0)
   1108c:	0044e493          	ori	s1,s1,4
   11090:	0004849b          	sext.w	s1,s1
   11094:	8f9ff06f          	j	1098c <_vfprintf_r+0x1c4>
   11098:	02b00793          	li	a5,43
   1109c:	00044e83          	lbu	t4,0(s0)
   110a0:	0cf10fa3          	sb	a5,223(sp)
   110a4:	8e9ff06f          	j	1098c <_vfprintf_r+0x1c4>
   110a8:	0804e493          	ori	s1,s1,128
   110ac:	00044e83          	lbu	t4,0(s0)
   110b0:	0004849b          	sext.w	s1,s1
   110b4:	8d9ff06f          	j	1098c <_vfprintf_r+0x1c4>
   110b8:	00044a83          	lbu	s5,0(s0)
   110bc:	00140793          	addi	a5,s0,1
   110c0:	00da9463          	bne	s5,a3,110c8 <_vfprintf_r+0x900>
   110c4:	5150106f          	j	12dd8 <_vfprintf_r+0x2610>
   110c8:	fd0a871b          	addiw	a4,s5,-48
   110cc:	00078413          	mv	s0,a5
   110d0:	00000d93          	li	s11,0
   110d4:	8ceb62e3          	bltu	s6,a4,10998 <_vfprintf_r+0x1d0>
   110d8:	00044603          	lbu	a2,0(s0)
   110dc:	002d979b          	slliw	a5,s11,0x2
   110e0:	01b787bb          	addw	a5,a5,s11
   110e4:	0017979b          	slliw	a5,a5,0x1
   110e8:	00e78dbb          	addw	s11,a5,a4
   110ec:	fd06071b          	addiw	a4,a2,-48
   110f0:	00140413          	addi	s0,s0,1
   110f4:	feeb72e3          	bgeu	s6,a4,110d8 <_vfprintf_r+0x910>
   110f8:	00060a93          	mv	s5,a2
   110fc:	89dff06f          	j	10998 <_vfprintf_r+0x1d0>
   11100:	00813783          	ld	a5,8(sp)
   11104:	00044e83          	lbu	t4,0(s0)
   11108:	0007a903          	lw	s2,0(a5)
   1110c:	00878793          	addi	a5,a5,8
   11110:	00f13423          	sd	a5,8(sp)
   11114:	86095ce3          	bgez	s2,1098c <_vfprintf_r+0x1c4>
   11118:	4120093b          	negw	s2,s2
   1111c:	f71ff06f          	j	1108c <_vfprintf_r+0x8c4>
   11120:	000c0513          	mv	a0,s8
   11124:	08d050ef          	jal	ra,169b0 <_localeconv_r>
   11128:	00853783          	ld	a5,8(a0)
   1112c:	00078513          	mv	a0,a5
   11130:	04f13c23          	sd	a5,88(sp)
   11134:	321070ef          	jal	ra,18c54 <strlen>
   11138:	00050793          	mv	a5,a0
   1113c:	000c0513          	mv	a0,s8
   11140:	00078a93          	mv	s5,a5
   11144:	06f13c23          	sd	a5,120(sp)
   11148:	069050ef          	jal	ra,169b0 <_localeconv_r>
   1114c:	01053783          	ld	a5,16(a0)
   11150:	00044e83          	lbu	t4,0(s0)
   11154:	06f13023          	sd	a5,96(sp)
   11158:	820a8ae3          	beqz	s5,1098c <_vfprintf_r+0x1c4>
   1115c:	820788e3          	beqz	a5,1098c <_vfprintf_r+0x1c4>
   11160:	0007c783          	lbu	a5,0(a5)
   11164:	820784e3          	beqz	a5,1098c <_vfprintf_r+0x1c4>
   11168:	4004e493          	ori	s1,s1,1024
   1116c:	0004849b          	sext.w	s1,s1
   11170:	81dff06f          	j	1098c <_vfprintf_r+0x1c4>
   11174:	0014e493          	ori	s1,s1,1
   11178:	00044e83          	lbu	t4,0(s0)
   1117c:	0004849b          	sext.w	s1,s1
   11180:	80dff06f          	j	1098c <_vfprintf_r+0x1c4>
   11184:	0df14783          	lbu	a5,223(sp)
   11188:	00044e83          	lbu	t4,0(s0)
   1118c:	800790e3          	bnez	a5,1098c <_vfprintf_r+0x1c4>
   11190:	02000793          	li	a5,32
   11194:	0cf10fa3          	sb	a5,223(sp)
   11198:	ff4ff06f          	j	1098c <_vfprintf_r+0x1c4>
   1119c:	0104e493          	ori	s1,s1,16
   111a0:	000c8313          	mv	t1,s9
   111a4:	00048b1b          	sext.w	s6,s1
   111a8:	00813683          	ld	a3,8(sp)
   111ac:	020b7793          	andi	a5,s6,32
   111b0:	00868713          	addi	a4,a3,8
   111b4:	2e0788e3          	beqz	a5,11ca4 <_vfprintf_r+0x14dc>
   111b8:	0006b983          	ld	s3,0(a3)
   111bc:	00100793          	li	a5,1
   111c0:	00e13423          	sd	a4,8(sp)
   111c4:	0c010fa3          	sb	zero,223(sp)
   111c8:	fff00713          	li	a4,-1
   111cc:	1aed8c63          	beq	s11,a4,11384 <_vfprintf_r+0xbbc>
   111d0:	f7fb7493          	andi	s1,s6,-129
   111d4:	0004849b          	sext.w	s1,s1
   111d8:	1a099463          	bnez	s3,11380 <_vfprintf_r+0xbb8>
   111dc:	620d9863          	bnez	s11,1180c <_vfprintf_r+0x1044>
   111e0:	08079863          	bnez	a5,11270 <_vfprintf_r+0xaa8>
   111e4:	001b7a13          	andi	s4,s6,1
   111e8:	18c10d13          	addi	s10,sp,396
   111ec:	320a10e3          	bnez	s4,11d0c <_vfprintf_r+0x1544>
   111f0:	000a099b          	sext.w	s3,s4
   111f4:	01ba5463          	bge	s4,s11,111fc <_vfprintf_r+0xa34>
   111f8:	000d899b          	sext.w	s3,s11
   111fc:	0df14783          	lbu	a5,223(sp)
   11200:	00013823          	sd	zero,16(sp)
   11204:	02013823          	sd	zero,48(sp)
   11208:	02013423          	sd	zero,40(sp)
   1120c:	00013c23          	sd	zero,24(sp)
   11210:	e60798e3          	bnez	a5,11080 <_vfprintf_r+0x8b8>
   11214:	80dff06f          	j	10a20 <_vfprintf_r+0x258>
   11218:	0084e493          	ori	s1,s1,8
   1121c:	00044e83          	lbu	t4,0(s0)
   11220:	0004849b          	sext.w	s1,s1
   11224:	f68ff06f          	j	1098c <_vfprintf_r+0x1c4>
   11228:	0104e493          	ori	s1,s1,16
   1122c:	000c8313          	mv	t1,s9
   11230:	0004849b          	sext.w	s1,s1
   11234:	00813683          	ld	a3,8(sp)
   11238:	0204f793          	andi	a5,s1,32
   1123c:	00868713          	addi	a4,a3,8
   11240:	220784e3          	beqz	a5,11c68 <_vfprintf_r+0x14a0>
   11244:	0006b783          	ld	a5,0(a3)
   11248:	00078993          	mv	s3,a5
   1124c:	2207cee3          	bltz	a5,11c88 <_vfprintf_r+0x14c0>
   11250:	fff00793          	li	a5,-1
   11254:	6efd8a63          	beq	s11,a5,11948 <_vfprintf_r+0x1180>
   11258:	f7f4f493          	andi	s1,s1,-129
   1125c:	00e13423          	sd	a4,8(sp)
   11260:	00048b1b          	sext.w	s6,s1
   11264:	6e099663          	bnez	s3,11950 <_vfprintf_r+0x1188>
   11268:	6e0d9863          	bnez	s11,11958 <_vfprintf_r+0x1190>
   1126c:	000b0493          	mv	s1,s6
   11270:	00000d93          	li	s11,0
   11274:	00000a13          	li	s4,0
   11278:	18c10d13          	addi	s10,sp,396
   1127c:	f75ff06f          	j	111f0 <_vfprintf_r+0xa28>
   11280:	0104e493          	ori	s1,s1,16
   11284:	000c8313          	mv	t1,s9
   11288:	0004849b          	sext.w	s1,s1
   1128c:	00813683          	ld	a3,8(sp)
   11290:	0204f793          	andi	a5,s1,32
   11294:	00868713          	addi	a4,a3,8
   11298:	22078ce3          	beqz	a5,11cd0 <_vfprintf_r+0x1508>
   1129c:	0006b983          	ld	s3,0(a3)
   112a0:	bff4f493          	andi	s1,s1,-1025
   112a4:	00048b1b          	sext.w	s6,s1
   112a8:	00e13423          	sd	a4,8(sp)
   112ac:	00000793          	li	a5,0
   112b0:	f15ff06f          	j	111c4 <_vfprintf_r+0x9fc>
   112b4:	0204e493          	ori	s1,s1,32
   112b8:	00044e83          	lbu	t4,0(s0)
   112bc:	0004849b          	sext.w	s1,s1
   112c0:	eccff06f          	j	1098c <_vfprintf_r+0x1c4>
   112c4:	00813683          	ld	a3,8(sp)
   112c8:	0204f793          	andi	a5,s1,32
   112cc:	000c8313          	mv	t1,s9
   112d0:	0006b703          	ld	a4,0(a3)
   112d4:	00868693          	addi	a3,a3,8
   112d8:	00d13423          	sd	a3,8(sp)
   112dc:	240790e3          	bnez	a5,11d1c <_vfprintf_r+0x1554>
   112e0:	0104f793          	andi	a5,s1,16
   112e4:	22079ce3          	bnez	a5,11d1c <_vfprintf_r+0x1554>
   112e8:	0404f793          	andi	a5,s1,64
   112ec:	00078463          	beqz	a5,112f4 <_vfprintf_r+0xb2c>
   112f0:	1800106f          	j	12470 <_vfprintf_r+0x1ca8>
   112f4:	2004f493          	andi	s1,s1,512
   112f8:	00013783          	ld	a5,0(sp)
   112fc:	00049463          	bnez	s1,11304 <_vfprintf_r+0xb3c>
   11300:	08d0106f          	j	12b8c <_vfprintf_r+0x23c4>
   11304:	00f70023          	sb	a5,0(a4)
   11308:	00040d13          	mv	s10,s0
   1130c:	83dff06f          	j	10b48 <_vfprintf_r+0x380>
   11310:	00044e83          	lbu	t4,0(s0)
   11314:	06c00793          	li	a5,108
   11318:	36fe8ee3          	beq	t4,a5,11e94 <_vfprintf_r+0x16cc>
   1131c:	0104e493          	ori	s1,s1,16
   11320:	0004849b          	sext.w	s1,s1
   11324:	e68ff06f          	j	1098c <_vfprintf_r+0x1c4>
   11328:	00044e83          	lbu	t4,0(s0)
   1132c:	06800793          	li	a5,104
   11330:	34fe88e3          	beq	t4,a5,11e80 <_vfprintf_r+0x16b8>
   11334:	0404e493          	ori	s1,s1,64
   11338:	0004849b          	sext.w	s1,s1
   1133c:	e50ff06f          	j	1098c <_vfprintf_r+0x1c4>
   11340:	00813703          	ld	a4,8(sp)
   11344:	ffff87b7          	lui	a5,0xffff8
   11348:	8307c793          	xori	a5,a5,-2000
   1134c:	0ef11023          	sh	a5,224(sp)
   11350:	00870793          	addi	a5,a4,8
   11354:	00f13423          	sd	a5,8(sp)
   11358:	000217b7          	lui	a5,0x21
   1135c:	f8878793          	addi	a5,a5,-120 # 20f88 <key+0x88>
   11360:	0024e493          	ori	s1,s1,2
   11364:	04f13423          	sd	a5,72(sp)
   11368:	00073983          	ld	s3,0(a4)
   1136c:	000c8313          	mv	t1,s9
   11370:	00048b1b          	sext.w	s6,s1
   11374:	00200793          	li	a5,2
   11378:	07800a93          	li	s5,120
   1137c:	e49ff06f          	j	111c4 <_vfprintf_r+0x9fc>
   11380:	00048b13          	mv	s6,s1
   11384:	00100713          	li	a4,1
   11388:	5ce78463          	beq	a5,a4,11950 <_vfprintf_r+0x1188>
   1138c:	00200713          	li	a4,2
   11390:	48e78a63          	beq	a5,a4,11824 <_vfprintf_r+0x105c>
   11394:	18c10a13          	addi	s4,sp,396
   11398:	000a0d13          	mv	s10,s4
   1139c:	0079f793          	andi	a5,s3,7
   113a0:	03078793          	addi	a5,a5,48
   113a4:	fefd0fa3          	sb	a5,-1(s10)
   113a8:	0039d993          	srli	s3,s3,0x3
   113ac:	000d0713          	mv	a4,s10
   113b0:	fffd0d13          	addi	s10,s10,-1
   113b4:	fe0994e3          	bnez	s3,1139c <_vfprintf_r+0xbd4>
   113b8:	001b7693          	andi	a3,s6,1
   113bc:	08068663          	beqz	a3,11448 <_vfprintf_r+0xc80>
   113c0:	03000693          	li	a3,48
   113c4:	08d78263          	beq	a5,a3,11448 <_vfprintf_r+0xc80>
   113c8:	ffe70713          	addi	a4,a4,-2
   113cc:	fedd0fa3          	sb	a3,-1(s10)
   113d0:	40ea0a3b          	subw	s4,s4,a4
   113d4:	000b0493          	mv	s1,s6
   113d8:	00070d13          	mv	s10,a4
   113dc:	e15ff06f          	j	111f0 <_vfprintf_r+0xa28>
   113e0:	400b7793          	andi	a5,s6,1024
   113e4:	18c10a13          	addi	s4,sp,396
   113e8:	06013803          	ld	a6,96(sp)
   113ec:	0007869b          	sext.w	a3,a5
   113f0:	00000593          	li	a1,0
   113f4:	000a0613          	mv	a2,s4
   113f8:	00a00493          	li	s1,10
   113fc:	00900713          	li	a4,9
   11400:	0ff00c93          	li	s9,255
   11404:	0140006f          	j	11418 <_vfprintf_r+0xc50>
   11408:	0299d7b3          	divu	a5,s3,s1
   1140c:	03377a63          	bgeu	a4,s3,11440 <_vfprintf_r+0xc78>
   11410:	00078993          	mv	s3,a5
   11414:	000d0613          	mv	a2,s10
   11418:	fff60d13          	addi	s10,a2,-1
   1141c:	0015859b          	addiw	a1,a1,1
   11420:	0299f7b3          	remu	a5,s3,s1
   11424:	0307879b          	addiw	a5,a5,48
   11428:	fef60fa3          	sb	a5,-1(a2)
   1142c:	fc068ee3          	beqz	a3,11408 <_vfprintf_r+0xc40>
   11430:	00084783          	lbu	a5,0(a6)
   11434:	fcf59ae3          	bne	a1,a5,11408 <_vfprintf_r+0xc40>
   11438:	fd9788e3          	beq	a5,s9,11408 <_vfprintf_r+0xc40>
   1143c:	773760e3          	bltu	a4,s3,1239c <_vfprintf_r+0x1bd4>
   11440:	07013023          	sd	a6,96(sp)
   11444:	02b13023          	sd	a1,32(sp)
   11448:	41aa0a3b          	subw	s4,s4,s10
   1144c:	000b0493          	mv	s1,s6
   11450:	da1ff06f          	j	111f0 <_vfprintf_r+0xa28>
   11454:	06500713          	li	a4,101
   11458:	2d575063          	bge	a4,s5,11718 <_vfprintf_r+0xf50>
   1145c:	10013503          	ld	a0,256(sp)
   11460:	10813583          	ld	a1,264(sp)
   11464:	00000613          	li	a2,0
   11468:	00000693          	li	a3,0
   1146c:	06613823          	sd	t1,112(sp)
   11470:	06f13423          	sd	a5,104(sp)
   11474:	5ec0e0ef          	jal	ra,1fa60 <__eqtf2>
   11478:	06813783          	ld	a5,104(sp)
   1147c:	07013303          	ld	t1,112(sp)
   11480:	5c051263          	bnez	a0,11a44 <_vfprintf_r+0x127c>
   11484:	11812703          	lw	a4,280(sp)
   11488:	000216b7          	lui	a3,0x21
   1148c:	fa868693          	addi	a3,a3,-88 # 20fa8 <key+0xa8>
   11490:	0017071b          	addiw	a4,a4,1
   11494:	00d33023          	sd	a3,0(t1)
   11498:	00178793          	addi	a5,a5,1
   1149c:	00100693          	li	a3,1
   114a0:	00d33423          	sd	a3,8(t1)
   114a4:	10e12c23          	sw	a4,280(sp)
   114a8:	0007069b          	sext.w	a3,a4
   114ac:	12f13023          	sd	a5,288(sp)
   114b0:	00700713          	li	a4,7
   114b4:	01030313          	addi	t1,t1,16
   114b8:	38d748e3          	blt	a4,a3,12048 <_vfprintf_r+0x1880>
   114bc:	0e812703          	lw	a4,232(sp)
   114c0:	02013683          	ld	a3,32(sp)
   114c4:	02d758e3          	bge	a4,a3,11cf4 <_vfprintf_r+0x152c>
   114c8:	04013703          	ld	a4,64(sp)
   114cc:	03813683          	ld	a3,56(sp)
   114d0:	01030313          	addi	t1,t1,16
   114d4:	fee33823          	sd	a4,-16(t1)
   114d8:	11812703          	lw	a4,280(sp)
   114dc:	00d787b3          	add	a5,a5,a3
   114e0:	fed33c23          	sd	a3,-8(t1)
   114e4:	0017071b          	addiw	a4,a4,1
   114e8:	0007069b          	sext.w	a3,a4
   114ec:	10e12c23          	sw	a4,280(sp)
   114f0:	12f13023          	sd	a5,288(sp)
   114f4:	00700713          	li	a4,7
   114f8:	16d744e3          	blt	a4,a3,11e60 <_vfprintf_r+0x1698>
   114fc:	02013703          	ld	a4,32(sp)
   11500:	fff70a1b          	addiw	s4,a4,-1
   11504:	df405c63          	blez	s4,10afc <_vfprintf_r+0x334>
   11508:	000218b7          	lui	a7,0x21
   1150c:	01000693          	li	a3,16
   11510:	11812703          	lw	a4,280(sp)
   11514:	13088c93          	addi	s9,a7,304 # 21130 <zeroes.4519>
   11518:	01000b13          	li	s6,16
   1151c:	00700a93          	li	s5,7
   11520:	0146c863          	blt	a3,s4,11530 <_vfprintf_r+0xd68>
   11524:	3450006f          	j	12068 <_vfprintf_r+0x18a0>
   11528:	ff0a0a1b          	addiw	s4,s4,-16
   1152c:	334b5ee3          	bge	s6,s4,12068 <_vfprintf_r+0x18a0>
   11530:	0017071b          	addiw	a4,a4,1
   11534:	01078793          	addi	a5,a5,16
   11538:	01933023          	sd	s9,0(t1)
   1153c:	01633423          	sd	s6,8(t1)
   11540:	12f13023          	sd	a5,288(sp)
   11544:	10e12c23          	sw	a4,280(sp)
   11548:	01030313          	addi	t1,t1,16
   1154c:	fceadee3          	bge	s5,a4,11528 <_vfprintf_r+0xd60>
   11550:	11010613          	addi	a2,sp,272
   11554:	000b8593          	mv	a1,s7
   11558:	000c0513          	mv	a0,s8
   1155c:	75d090ef          	jal	ra,1b4b8 <__sprint_r>
   11560:	1a051263          	bnez	a0,11704 <_vfprintf_r+0xf3c>
   11564:	12013783          	ld	a5,288(sp)
   11568:	11812703          	lw	a4,280(sp)
   1156c:	19010313          	addi	t1,sp,400
   11570:	fb9ff06f          	j	11528 <_vfprintf_r+0xd60>
   11574:	41390b3b          	subw	s6,s2,s3
   11578:	d5605463          	blez	s6,10ac0 <_vfprintf_r+0x2f8>
   1157c:	000218b7          	lui	a7,0x21
   11580:	01000613          	li	a2,16
   11584:	11812703          	lw	a4,280(sp)
   11588:	13088c93          	addi	s9,a7,304 # 21130 <zeroes.4519>
   1158c:	01000f13          	li	t5,16
   11590:	00700f93          	li	t6,7
   11594:	01664863          	blt	a2,s6,115a4 <_vfprintf_r+0xddc>
   11598:	05c0006f          	j	115f4 <_vfprintf_r+0xe2c>
   1159c:	ff0b0b1b          	addiw	s6,s6,-16
   115a0:	056f5a63          	bge	t5,s6,115f4 <_vfprintf_r+0xe2c>
   115a4:	0017071b          	addiw	a4,a4,1
   115a8:	01078793          	addi	a5,a5,16
   115ac:	01933023          	sd	s9,0(t1)
   115b0:	01e33423          	sd	t5,8(t1)
   115b4:	12f13023          	sd	a5,288(sp)
   115b8:	10e12c23          	sw	a4,280(sp)
   115bc:	01030313          	addi	t1,t1,16
   115c0:	fcefdee3          	bge	t6,a4,1159c <_vfprintf_r+0xdd4>
   115c4:	11010613          	addi	a2,sp,272
   115c8:	000b8593          	mv	a1,s7
   115cc:	000c0513          	mv	a0,s8
   115d0:	6e9090ef          	jal	ra,1b4b8 <__sprint_r>
   115d4:	12051863          	bnez	a0,11704 <_vfprintf_r+0xf3c>
   115d8:	01000f13          	li	t5,16
   115dc:	ff0b0b1b          	addiw	s6,s6,-16
   115e0:	12013783          	ld	a5,288(sp)
   115e4:	11812703          	lw	a4,280(sp)
   115e8:	19010313          	addi	t1,sp,400
   115ec:	00700f93          	li	t6,7
   115f0:	fb6f4ae3          	blt	t5,s6,115a4 <_vfprintf_r+0xddc>
   115f4:	0017069b          	addiw	a3,a4,1
   115f8:	016787b3          	add	a5,a5,s6
   115fc:	01933023          	sd	s9,0(t1)
   11600:	01633423          	sd	s6,8(t1)
   11604:	12f13023          	sd	a5,288(sp)
   11608:	10d12c23          	sw	a3,280(sp)
   1160c:	00700713          	li	a4,7
   11610:	01030313          	addi	t1,t1,16
   11614:	cad75663          	bge	a4,a3,10ac0 <_vfprintf_r+0x2f8>
   11618:	11010613          	addi	a2,sp,272
   1161c:	000b8593          	mv	a1,s7
   11620:	000c0513          	mv	a0,s8
   11624:	695090ef          	jal	ra,1b4b8 <__sprint_r>
   11628:	0c051e63          	bnez	a0,11704 <_vfprintf_r+0xf3c>
   1162c:	12013783          	ld	a5,288(sp)
   11630:	19010313          	addi	t1,sp,400
   11634:	c8cff06f          	j	10ac0 <_vfprintf_r+0x2f8>
   11638:	000218b7          	lui	a7,0x21
   1163c:	01000693          	li	a3,16
   11640:	11812703          	lw	a4,280(sp)
   11644:	13088c93          	addi	s9,a7,304 # 21130 <zeroes.4519>
   11648:	01000f13          	li	t5,16
   1164c:	00700b13          	li	s6,7
   11650:	01b6c863          	blt	a3,s11,11660 <_vfprintf_r+0xe98>
   11654:	0580006f          	j	116ac <_vfprintf_r+0xee4>
   11658:	ff0d8d9b          	addiw	s11,s11,-16
   1165c:	05bf5863          	bge	t5,s11,116ac <_vfprintf_r+0xee4>
   11660:	0017071b          	addiw	a4,a4,1
   11664:	01078793          	addi	a5,a5,16
   11668:	01933023          	sd	s9,0(t1)
   1166c:	01e33423          	sd	t5,8(t1)
   11670:	12f13023          	sd	a5,288(sp)
   11674:	10e12c23          	sw	a4,280(sp)
   11678:	01030313          	addi	t1,t1,16
   1167c:	fceb5ee3          	bge	s6,a4,11658 <_vfprintf_r+0xe90>
   11680:	11010613          	addi	a2,sp,272
   11684:	000b8593          	mv	a1,s7
   11688:	000c0513          	mv	a0,s8
   1168c:	62d090ef          	jal	ra,1b4b8 <__sprint_r>
   11690:	06051a63          	bnez	a0,11704 <_vfprintf_r+0xf3c>
   11694:	01000f13          	li	t5,16
   11698:	ff0d8d9b          	addiw	s11,s11,-16
   1169c:	12013783          	ld	a5,288(sp)
   116a0:	11812703          	lw	a4,280(sp)
   116a4:	19010313          	addi	t1,sp,400
   116a8:	fbbf4ce3          	blt	t5,s11,11660 <_vfprintf_r+0xe98>
   116ac:	0017069b          	addiw	a3,a4,1
   116b0:	01b787b3          	add	a5,a5,s11
   116b4:	01933023          	sd	s9,0(t1)
   116b8:	01b33423          	sd	s11,8(t1)
   116bc:	12f13023          	sd	a5,288(sp)
   116c0:	10d12c23          	sw	a3,280(sp)
   116c4:	00700713          	li	a4,7
   116c8:	01030313          	addi	t1,t1,16
   116cc:	bed75e63          	bge	a4,a3,10ac8 <_vfprintf_r+0x300>
   116d0:	11010613          	addi	a2,sp,272
   116d4:	000b8593          	mv	a1,s7
   116d8:	000c0513          	mv	a0,s8
   116dc:	5dd090ef          	jal	ra,1b4b8 <__sprint_r>
   116e0:	02051263          	bnez	a0,11704 <_vfprintf_r+0xf3c>
   116e4:	12013783          	ld	a5,288(sp)
   116e8:	19010313          	addi	t1,sp,400
   116ec:	bdcff06f          	j	10ac8 <_vfprintf_r+0x300>
   116f0:	11010613          	addi	a2,sp,272
   116f4:	000b8593          	mv	a1,s7
   116f8:	000c0513          	mv	a0,s8
   116fc:	5bd090ef          	jal	ra,1b4b8 <__sprint_r>
   11700:	c2050463          	beqz	a0,10b28 <_vfprintf_r+0x360>
   11704:	01013583          	ld	a1,16(sp)
   11708:	c4058a63          	beqz	a1,10b5c <_vfprintf_r+0x394>
   1170c:	000c0513          	mv	a0,s8
   11710:	23c020ef          	jal	ra,1394c <_free_r>
   11714:	c48ff06f          	j	10b5c <_vfprintf_r+0x394>
   11718:	11812583          	lw	a1,280(sp)
   1171c:	00178a93          	addi	s5,a5,1
   11720:	02013783          	ld	a5,32(sp)
   11724:	0015871b          	addiw	a4,a1,1
   11728:	00100613          	li	a2,1
   1172c:	01a33023          	sd	s10,0(t1)
   11730:	00070693          	mv	a3,a4
   11734:	01030a13          	addi	s4,t1,16
   11738:	48f65863          	bge	a2,a5,11bc8 <_vfprintf_r+0x1400>
   1173c:	00100613          	li	a2,1
   11740:	10d12c23          	sw	a3,280(sp)
   11744:	00c33423          	sd	a2,8(t1)
   11748:	13513023          	sd	s5,288(sp)
   1174c:	00700693          	li	a3,7
   11750:	7ee6cc63          	blt	a3,a4,11f48 <_vfprintf_r+0x1780>
   11754:	03813783          	ld	a5,56(sp)
   11758:	04013683          	ld	a3,64(sp)
   1175c:	00170b1b          	addiw	s6,a4,1
   11760:	00fa8ab3          	add	s5,s5,a5
   11764:	00da3023          	sd	a3,0(s4)
   11768:	00fa3423          	sd	a5,8(s4)
   1176c:	13513023          	sd	s5,288(sp)
   11770:	11612c23          	sw	s6,280(sp)
   11774:	00700713          	li	a4,7
   11778:	010a0a13          	addi	s4,s4,16
   1177c:	7f674863          	blt	a4,s6,11f6c <_vfprintf_r+0x17a4>
   11780:	10013503          	ld	a0,256(sp)
   11784:	10813583          	ld	a1,264(sp)
   11788:	001b0e1b          	addiw	t3,s6,1
   1178c:	00000693          	li	a3,0
   11790:	00000613          	li	a2,0
   11794:	01c13c23          	sd	t3,24(sp)
   11798:	2c80e0ef          	jal	ra,1fa60 <__eqtf2>
   1179c:	01813e03          	ld	t3,24(sp)
   117a0:	02013783          	ld	a5,32(sp)
   117a4:	010a0313          	addi	t1,s4,16
   117a8:	000e069b          	sext.w	a3,t3
   117ac:	fff78d9b          	addiw	s11,a5,-1
   117b0:	44050063          	beqz	a0,11bf0 <_vfprintf_r+0x1428>
   117b4:	001d0813          	addi	a6,s10,1
   117b8:	01ba8ab3          	add	s5,s5,s11
   117bc:	010a3023          	sd	a6,0(s4)
   117c0:	01ba3423          	sd	s11,8(s4)
   117c4:	13513023          	sd	s5,288(sp)
   117c8:	11c12c23          	sw	t3,280(sp)
   117cc:	00700713          	li	a4,7
   117d0:	5ed74263          	blt	a4,a3,11db4 <_vfprintf_r+0x15ec>
   117d4:	020a0713          	addi	a4,s4,32
   117d8:	002b069b          	addiw	a3,s6,2
   117dc:	00030a13          	mv	s4,t1
   117e0:	00070313          	mv	t1,a4
   117e4:	05013603          	ld	a2,80(sp)
   117e8:	0f010713          	addi	a4,sp,240
   117ec:	00ea3023          	sd	a4,0(s4)
   117f0:	00ca87b3          	add	a5,s5,a2
   117f4:	00ca3423          	sd	a2,8(s4)
   117f8:	12f13023          	sd	a5,288(sp)
   117fc:	10d12c23          	sw	a3,280(sp)
   11800:	00700713          	li	a4,7
   11804:	aed75c63          	bge	a4,a3,10afc <_vfprintf_r+0x334>
   11808:	fa0ff06f          	j	10fa8 <_vfprintf_r+0x7e0>
   1180c:	00100713          	li	a4,1
   11810:	00e79463          	bne	a5,a4,11818 <_vfprintf_r+0x1050>
   11814:	3600106f          	j	12b74 <_vfprintf_r+0x23ac>
   11818:	00200713          	li	a4,2
   1181c:	00048b13          	mv	s6,s1
   11820:	b6e79ae3          	bne	a5,a4,11394 <_vfprintf_r+0xbcc>
   11824:	04813703          	ld	a4,72(sp)
   11828:	18c10a13          	addi	s4,sp,396
   1182c:	000a0d13          	mv	s10,s4
   11830:	00f9f793          	andi	a5,s3,15
   11834:	00f707b3          	add	a5,a4,a5
   11838:	0007c783          	lbu	a5,0(a5)
   1183c:	0049d993          	srli	s3,s3,0x4
   11840:	fffd0d13          	addi	s10,s10,-1
   11844:	00fd0023          	sb	a5,0(s10)
   11848:	fe0994e3          	bnez	s3,11830 <_vfprintf_r+0x1068>
   1184c:	41aa0a3b          	subw	s4,s4,s10
   11850:	000b0493          	mv	s1,s6
   11854:	99dff06f          	j	111f0 <_vfprintf_r+0xa28>
   11858:	000218b7          	lui	a7,0x21
   1185c:	01000613          	li	a2,16
   11860:	11812703          	lw	a4,280(sp)
   11864:	12088893          	addi	a7,a7,288 # 21120 <blanks.4518>
   11868:	08d65c63          	bge	a2,a3,11900 <_vfprintf_r+0x1138>
   1186c:	06813423          	sd	s0,104(sp)
   11870:	06913823          	sd	s1,112(sp)
   11874:	000c0413          	mv	s0,s8
   11878:	000b8493          	mv	s1,s7
   1187c:	01000f13          	li	t5,16
   11880:	00700393          	li	t2,7
   11884:	00068b93          	mv	s7,a3
   11888:	00088c13          	mv	s8,a7
   1188c:	00c0006f          	j	11898 <_vfprintf_r+0x10d0>
   11890:	ff0b8b9b          	addiw	s7,s7,-16
   11894:	057f5a63          	bge	t5,s7,118e8 <_vfprintf_r+0x1120>
   11898:	0017071b          	addiw	a4,a4,1
   1189c:	01078793          	addi	a5,a5,16
   118a0:	01833023          	sd	s8,0(t1)
   118a4:	01e33423          	sd	t5,8(t1)
   118a8:	12f13023          	sd	a5,288(sp)
   118ac:	10e12c23          	sw	a4,280(sp)
   118b0:	01030313          	addi	t1,t1,16
   118b4:	fce3dee3          	bge	t2,a4,11890 <_vfprintf_r+0x10c8>
   118b8:	11010613          	addi	a2,sp,272
   118bc:	00048593          	mv	a1,s1
   118c0:	00040513          	mv	a0,s0
   118c4:	3f5090ef          	jal	ra,1b4b8 <__sprint_r>
   118c8:	74051c63          	bnez	a0,12020 <_vfprintf_r+0x1858>
   118cc:	01000f13          	li	t5,16
   118d0:	ff0b8b9b          	addiw	s7,s7,-16
   118d4:	12013783          	ld	a5,288(sp)
   118d8:	11812703          	lw	a4,280(sp)
   118dc:	19010313          	addi	t1,sp,400
   118e0:	00700393          	li	t2,7
   118e4:	fb7f4ae3          	blt	t5,s7,11898 <_vfprintf_r+0x10d0>
   118e8:	000b8693          	mv	a3,s7
   118ec:	000c0893          	mv	a7,s8
   118f0:	00048b93          	mv	s7,s1
   118f4:	00040c13          	mv	s8,s0
   118f8:	07013483          	ld	s1,112(sp)
   118fc:	06813403          	ld	s0,104(sp)
   11900:	0017071b          	addiw	a4,a4,1
   11904:	00d787b3          	add	a5,a5,a3
   11908:	00d33423          	sd	a3,8(t1)
   1190c:	01133023          	sd	a7,0(t1)
   11910:	0007069b          	sext.w	a3,a4
   11914:	10e12c23          	sw	a4,280(sp)
   11918:	12f13023          	sd	a5,288(sp)
   1191c:	00700713          	li	a4,7
   11920:	01030313          	addi	t1,t1,16
   11924:	92d75063          	bge	a4,a3,10a44 <_vfprintf_r+0x27c>
   11928:	11010613          	addi	a2,sp,272
   1192c:	000b8593          	mv	a1,s7
   11930:	000c0513          	mv	a0,s8
   11934:	385090ef          	jal	ra,1b4b8 <__sprint_r>
   11938:	dc0516e3          	bnez	a0,11704 <_vfprintf_r+0xf3c>
   1193c:	12013783          	ld	a5,288(sp)
   11940:	19010313          	addi	t1,sp,400
   11944:	900ff06f          	j	10a44 <_vfprintf_r+0x27c>
   11948:	00048b13          	mv	s6,s1
   1194c:	00e13423          	sd	a4,8(sp)
   11950:	00900793          	li	a5,9
   11954:	a937e6e3          	bltu	a5,s3,113e0 <_vfprintf_r+0xc18>
   11958:	0309899b          	addiw	s3,s3,48
   1195c:	193105a3          	sb	s3,395(sp)
   11960:	000b0493          	mv	s1,s6
   11964:	00100a13          	li	s4,1
   11968:	18b10d13          	addi	s10,sp,395
   1196c:	885ff06f          	j	111f0 <_vfprintf_r+0xa28>
   11970:	11010613          	addi	a2,sp,272
   11974:	000b8593          	mv	a1,s7
   11978:	000c0513          	mv	a0,s8
   1197c:	33d090ef          	jal	ra,1b4b8 <__sprint_r>
   11980:	d80512e3          	bnez	a0,11704 <_vfprintf_r+0xf3c>
   11984:	12013783          	ld	a5,288(sp)
   11988:	19010313          	addi	t1,sp,400
   1198c:	92cff06f          	j	10ab8 <_vfprintf_r+0x2f0>
   11990:	000218b7          	lui	a7,0x21
   11994:	12088893          	addi	a7,a7,288 # 21120 <blanks.4518>
   11998:	01000693          	li	a3,16
   1199c:	11812703          	lw	a4,280(sp)
   119a0:	01000a13          	li	s4,16
   119a4:	00700b13          	li	s6,7
   119a8:	00088a93          	mv	s5,a7
   119ac:	0096c863          	blt	a3,s1,119bc <_vfprintf_r+0x11f4>
   119b0:	0580006f          	j	11a08 <_vfprintf_r+0x1240>
   119b4:	ff04849b          	addiw	s1,s1,-16
   119b8:	049a5663          	bge	s4,s1,11a04 <_vfprintf_r+0x123c>
   119bc:	0017071b          	addiw	a4,a4,1
   119c0:	01078793          	addi	a5,a5,16
   119c4:	01533023          	sd	s5,0(t1)
   119c8:	01433423          	sd	s4,8(t1)
   119cc:	12f13023          	sd	a5,288(sp)
   119d0:	10e12c23          	sw	a4,280(sp)
   119d4:	01030313          	addi	t1,t1,16
   119d8:	fceb5ee3          	bge	s6,a4,119b4 <_vfprintf_r+0x11ec>
   119dc:	11010613          	addi	a2,sp,272
   119e0:	000b8593          	mv	a1,s7
   119e4:	000c0513          	mv	a0,s8
   119e8:	2d1090ef          	jal	ra,1b4b8 <__sprint_r>
   119ec:	d0051ce3          	bnez	a0,11704 <_vfprintf_r+0xf3c>
   119f0:	ff04849b          	addiw	s1,s1,-16
   119f4:	12013783          	ld	a5,288(sp)
   119f8:	11812703          	lw	a4,280(sp)
   119fc:	19010313          	addi	t1,sp,400
   11a00:	fa9a4ee3          	blt	s4,s1,119bc <_vfprintf_r+0x11f4>
   11a04:	000a8893          	mv	a7,s5
   11a08:	0017069b          	addiw	a3,a4,1
   11a0c:	009787b3          	add	a5,a5,s1
   11a10:	01133023          	sd	a7,0(t1)
   11a14:	00933423          	sd	s1,8(t1)
   11a18:	12f13023          	sd	a5,288(sp)
   11a1c:	10d12c23          	sw	a3,280(sp)
   11a20:	00700713          	li	a4,7
   11a24:	8ed75463          	bge	a4,a3,10b0c <_vfprintf_r+0x344>
   11a28:	11010613          	addi	a2,sp,272
   11a2c:	000b8593          	mv	a1,s7
   11a30:	000c0513          	mv	a0,s8
   11a34:	285090ef          	jal	ra,1b4b8 <__sprint_r>
   11a38:	cc0516e3          	bnez	a0,11704 <_vfprintf_r+0xf3c>
   11a3c:	12013783          	ld	a5,288(sp)
   11a40:	8ccff06f          	j	10b0c <_vfprintf_r+0x344>
   11a44:	0e812603          	lw	a2,232(sp)
   11a48:	54c05463          	blez	a2,11f90 <_vfprintf_r+0x17c8>
   11a4c:	01813703          	ld	a4,24(sp)
   11a50:	02013683          	ld	a3,32(sp)
   11a54:	00070a1b          	sext.w	s4,a4
   11a58:	32e6c663          	blt	a3,a4,11d84 <_vfprintf_r+0x15bc>
   11a5c:	03405663          	blez	s4,11a88 <_vfprintf_r+0x12c0>
   11a60:	11812703          	lw	a4,280(sp)
   11a64:	014787b3          	add	a5,a5,s4
   11a68:	01a33023          	sd	s10,0(t1)
   11a6c:	0017069b          	addiw	a3,a4,1
   11a70:	01433423          	sd	s4,8(t1)
   11a74:	12f13023          	sd	a5,288(sp)
   11a78:	10d12c23          	sw	a3,280(sp)
   11a7c:	00700713          	li	a4,7
   11a80:	01030313          	addi	t1,t1,16
   11a84:	1ad742e3          	blt	a4,a3,12428 <_vfprintf_r+0x1c60>
   11a88:	fffa4713          	not	a4,s4
   11a8c:	43f75713          	srai	a4,a4,0x3f
   11a90:	00ea7a33          	and	s4,s4,a4
   11a94:	01813703          	ld	a4,24(sp)
   11a98:	41470a3b          	subw	s4,a4,s4
   11a9c:	43404663          	bgtz	s4,11ec8 <_vfprintf_r+0x1700>
   11aa0:	01813683          	ld	a3,24(sp)
   11aa4:	4004f713          	andi	a4,s1,1024
   11aa8:	00dd0ab3          	add	s5,s10,a3
   11aac:	72071863          	bnez	a4,121dc <_vfprintf_r+0x1a14>
   11ab0:	0e812703          	lw	a4,232(sp)
   11ab4:	02013683          	ld	a3,32(sp)
   11ab8:	00d74663          	blt	a4,a3,11ac4 <_vfprintf_r+0x12fc>
   11abc:	0014f693          	andi	a3,s1,1
   11ac0:	180688e3          	beqz	a3,12450 <_vfprintf_r+0x1c88>
   11ac4:	04013683          	ld	a3,64(sp)
   11ac8:	03813603          	ld	a2,56(sp)
   11acc:	01030313          	addi	t1,t1,16
   11ad0:	fed33823          	sd	a3,-16(t1)
   11ad4:	11812683          	lw	a3,280(sp)
   11ad8:	00c787b3          	add	a5,a5,a2
   11adc:	fec33c23          	sd	a2,-8(t1)
   11ae0:	0016869b          	addiw	a3,a3,1
   11ae4:	0006861b          	sext.w	a2,a3
   11ae8:	10d12c23          	sw	a3,280(sp)
   11aec:	12f13023          	sd	a5,288(sp)
   11af0:	00700693          	li	a3,7
   11af4:	58c6cae3          	blt	a3,a2,12888 <_vfprintf_r+0x20c0>
   11af8:	02013683          	ld	a3,32(sp)
   11afc:	40e6863b          	subw	a2,a3,a4
   11b00:	00dd06b3          	add	a3,s10,a3
   11b04:	415686bb          	subw	a3,a3,s5
   11b08:	00060713          	mv	a4,a2
   11b0c:	00c6d463          	bge	a3,a2,11b14 <_vfprintf_r+0x134c>
   11b10:	00068713          	mv	a4,a3
   11b14:	00070a1b          	sext.w	s4,a4
   11b18:	03405663          	blez	s4,11b44 <_vfprintf_r+0x137c>
   11b1c:	11812703          	lw	a4,280(sp)
   11b20:	014787b3          	add	a5,a5,s4
   11b24:	01533023          	sd	s5,0(t1)
   11b28:	0017069b          	addiw	a3,a4,1
   11b2c:	01433423          	sd	s4,8(t1)
   11b30:	12f13023          	sd	a5,288(sp)
   11b34:	10d12c23          	sw	a3,280(sp)
   11b38:	00700713          	li	a4,7
   11b3c:	01030313          	addi	t1,t1,16
   11b40:	6ad748e3          	blt	a4,a3,129f0 <_vfprintf_r+0x2228>
   11b44:	fffa4713          	not	a4,s4
   11b48:	43f75713          	srai	a4,a4,0x3f
   11b4c:	00ea7a33          	and	s4,s4,a4
   11b50:	41460a3b          	subw	s4,a2,s4
   11b54:	01404463          	bgtz	s4,11b5c <_vfprintf_r+0x1394>
   11b58:	fa5fe06f          	j	10afc <_vfprintf_r+0x334>
   11b5c:	000218b7          	lui	a7,0x21
   11b60:	01000693          	li	a3,16
   11b64:	11812703          	lw	a4,280(sp)
   11b68:	13088c93          	addi	s9,a7,304 # 21130 <zeroes.4519>
   11b6c:	01000b13          	li	s6,16
   11b70:	00700a93          	li	s5,7
   11b74:	0146c863          	blt	a3,s4,11b84 <_vfprintf_r+0x13bc>
   11b78:	4f00006f          	j	12068 <_vfprintf_r+0x18a0>
   11b7c:	ff0a0a1b          	addiw	s4,s4,-16
   11b80:	4f4b5463          	bge	s6,s4,12068 <_vfprintf_r+0x18a0>
   11b84:	0017071b          	addiw	a4,a4,1
   11b88:	01078793          	addi	a5,a5,16
   11b8c:	01933023          	sd	s9,0(t1)
   11b90:	01633423          	sd	s6,8(t1)
   11b94:	12f13023          	sd	a5,288(sp)
   11b98:	10e12c23          	sw	a4,280(sp)
   11b9c:	01030313          	addi	t1,t1,16
   11ba0:	fceadee3          	bge	s5,a4,11b7c <_vfprintf_r+0x13b4>
   11ba4:	11010613          	addi	a2,sp,272
   11ba8:	000b8593          	mv	a1,s7
   11bac:	000c0513          	mv	a0,s8
   11bb0:	109090ef          	jal	ra,1b4b8 <__sprint_r>
   11bb4:	b40518e3          	bnez	a0,11704 <_vfprintf_r+0xf3c>
   11bb8:	12013783          	ld	a5,288(sp)
   11bbc:	11812703          	lw	a4,280(sp)
   11bc0:	19010313          	addi	t1,sp,400
   11bc4:	fb9ff06f          	j	11b7c <_vfprintf_r+0x13b4>
   11bc8:	0014f513          	andi	a0,s1,1
   11bcc:	b60518e3          	bnez	a0,1173c <_vfprintf_r+0xf74>
   11bd0:	00c33423          	sd	a2,8(t1)
   11bd4:	13513023          	sd	s5,288(sp)
   11bd8:	10e12c23          	sw	a4,280(sp)
   11bdc:	00700693          	li	a3,7
   11be0:	1ce6ca63          	blt	a3,a4,11db4 <_vfprintf_r+0x15ec>
   11be4:	0025869b          	addiw	a3,a1,2
   11be8:	02030313          	addi	t1,t1,32
   11bec:	bf9ff06f          	j	117e4 <_vfprintf_r+0x101c>
   11bf0:	bfb05ae3          	blez	s11,117e4 <_vfprintf_r+0x101c>
   11bf4:	01000613          	li	a2,16
   11bf8:	01b64463          	blt	a2,s11,11c00 <_vfprintf_r+0x1438>
   11bfc:	1cc0106f          	j	12dc8 <_vfprintf_r+0x2600>
   11c00:	000218b7          	lui	a7,0x21
   11c04:	13088c93          	addi	s9,a7,304 # 21130 <zeroes.4519>
   11c08:	01000693          	li	a3,16
   11c0c:	00700d13          	li	s10,7
   11c10:	0100006f          	j	11c20 <_vfprintf_r+0x1458>
   11c14:	ff0d8d9b          	addiw	s11,s11,-16
   11c18:	17b6dc63          	bge	a3,s11,11d90 <_vfprintf_r+0x15c8>
   11c1c:	001b0e1b          	addiw	t3,s6,1
   11c20:	010a8a93          	addi	s5,s5,16
   11c24:	019a3023          	sd	s9,0(s4)
   11c28:	00da3423          	sd	a3,8(s4)
   11c2c:	13513023          	sd	s5,288(sp)
   11c30:	000e0b1b          	sext.w	s6,t3
   11c34:	11c12c23          	sw	t3,280(sp)
   11c38:	010a0a13          	addi	s4,s4,16
   11c3c:	fd6d5ce3          	bge	s10,s6,11c14 <_vfprintf_r+0x144c>
   11c40:	11010613          	addi	a2,sp,272
   11c44:	000b8593          	mv	a1,s7
   11c48:	000c0513          	mv	a0,s8
   11c4c:	06d090ef          	jal	ra,1b4b8 <__sprint_r>
   11c50:	aa051ae3          	bnez	a0,11704 <_vfprintf_r+0xf3c>
   11c54:	12013a83          	ld	s5,288(sp)
   11c58:	11812b03          	lw	s6,280(sp)
   11c5c:	19010a13          	addi	s4,sp,400
   11c60:	01000693          	li	a3,16
   11c64:	fb1ff06f          	j	11c14 <_vfprintf_r+0x144c>
   11c68:	0104f793          	andi	a5,s1,16
   11c6c:	0c079a63          	bnez	a5,11d40 <_vfprintf_r+0x1578>
   11c70:	0404f793          	andi	a5,s1,64
   11c74:	4c078a63          	beqz	a5,12148 <_vfprintf_r+0x1980>
   11c78:	00813783          	ld	a5,8(sp)
   11c7c:	00079983          	lh	s3,0(a5)
   11c80:	00098793          	mv	a5,s3
   11c84:	dc07d663          	bgez	a5,11250 <_vfprintf_r+0xa88>
   11c88:	02d00793          	li	a5,45
   11c8c:	0cf10fa3          	sb	a5,223(sp)
   11c90:	413009b3          	neg	s3,s3
   11c94:	00e13423          	sd	a4,8(sp)
   11c98:	00048b13          	mv	s6,s1
   11c9c:	00100793          	li	a5,1
   11ca0:	d28ff06f          	j	111c8 <_vfprintf_r+0xa00>
   11ca4:	010b7793          	andi	a5,s6,16
   11ca8:	08079263          	bnez	a5,11d2c <_vfprintf_r+0x1564>
   11cac:	00813683          	ld	a3,8(sp)
   11cb0:	040b7793          	andi	a5,s6,64
   11cb4:	0006a983          	lw	s3,0(a3)
   11cb8:	4a078463          	beqz	a5,12160 <_vfprintf_r+0x1998>
   11cbc:	03099993          	slli	s3,s3,0x30
   11cc0:	0309d993          	srli	s3,s3,0x30
   11cc4:	00e13423          	sd	a4,8(sp)
   11cc8:	00100793          	li	a5,1
   11ccc:	cf8ff06f          	j	111c4 <_vfprintf_r+0x9fc>
   11cd0:	0104f793          	andi	a5,s1,16
   11cd4:	0a079263          	bnez	a5,11d78 <_vfprintf_r+0x15b0>
   11cd8:	00813683          	ld	a3,8(sp)
   11cdc:	0404f793          	andi	a5,s1,64
   11ce0:	0006a983          	lw	s3,0(a3)
   11ce4:	44078263          	beqz	a5,12128 <_vfprintf_r+0x1960>
   11ce8:	03099993          	slli	s3,s3,0x30
   11cec:	0309d993          	srli	s3,s3,0x30
   11cf0:	db0ff06f          	j	112a0 <_vfprintf_r+0xad8>
   11cf4:	0014f713          	andi	a4,s1,1
   11cf8:	00071463          	bnez	a4,11d00 <_vfprintf_r+0x1538>
   11cfc:	e01fe06f          	j	10afc <_vfprintf_r+0x334>
   11d00:	fc8ff06f          	j	114c8 <_vfprintf_r+0xd00>
   11d04:	000c8313          	mv	t1,s9
   11d08:	d2cff06f          	j	11234 <_vfprintf_r+0xa6c>
   11d0c:	03000793          	li	a5,48
   11d10:	18f105a3          	sb	a5,395(sp)
   11d14:	18b10d13          	addi	s10,sp,395
   11d18:	cd8ff06f          	j	111f0 <_vfprintf_r+0xa28>
   11d1c:	00013783          	ld	a5,0(sp)
   11d20:	00040d13          	mv	s10,s0
   11d24:	00f73023          	sd	a5,0(a4)
   11d28:	e21fe06f          	j	10b48 <_vfprintf_r+0x380>
   11d2c:	00813783          	ld	a5,8(sp)
   11d30:	00e13423          	sd	a4,8(sp)
   11d34:	0007b983          	ld	s3,0(a5)
   11d38:	00100793          	li	a5,1
   11d3c:	c88ff06f          	j	111c4 <_vfprintf_r+0x9fc>
   11d40:	00813783          	ld	a5,8(sp)
   11d44:	0007b783          	ld	a5,0(a5)
   11d48:	00078993          	mv	s3,a5
   11d4c:	d00ff06f          	j	1124c <_vfprintf_r+0xa84>
   11d50:	00813783          	ld	a5,8(sp)
   11d54:	00f78c93          	addi	s9,a5,15
   11d58:	ff0cfc93          	andi	s9,s9,-16
   11d5c:	000cb703          	ld	a4,0(s9)
   11d60:	008cb783          	ld	a5,8(s9)
   11d64:	010c8693          	addi	a3,s9,16
   11d68:	00d13423          	sd	a3,8(sp)
   11d6c:	10e13023          	sd	a4,256(sp)
   11d70:	10f13423          	sd	a5,264(sp)
   11d74:	ef1fe06f          	j	10c64 <_vfprintf_r+0x49c>
   11d78:	00813783          	ld	a5,8(sp)
   11d7c:	0007b983          	ld	s3,0(a5)
   11d80:	d20ff06f          	j	112a0 <_vfprintf_r+0xad8>
   11d84:	00068a1b          	sext.w	s4,a3
   11d88:	cd404ce3          	bgtz	s4,11a60 <_vfprintf_r+0x1298>
   11d8c:	cfdff06f          	j	11a88 <_vfprintf_r+0x12c0>
   11d90:	001b069b          	addiw	a3,s6,1
   11d94:	010a0613          	addi	a2,s4,16
   11d98:	01ba8ab3          	add	s5,s5,s11
   11d9c:	019a3023          	sd	s9,0(s4)
   11da0:	01ba3423          	sd	s11,8(s4)
   11da4:	13513023          	sd	s5,288(sp)
   11da8:	10d12c23          	sw	a3,280(sp)
   11dac:	00700713          	li	a4,7
   11db0:	62d75c63          	bge	a4,a3,123e8 <_vfprintf_r+0x1c20>
   11db4:	11010613          	addi	a2,sp,272
   11db8:	000b8593          	mv	a1,s7
   11dbc:	000c0513          	mv	a0,s8
   11dc0:	6f8090ef          	jal	ra,1b4b8 <__sprint_r>
   11dc4:	940510e3          	bnez	a0,11704 <_vfprintf_r+0xf3c>
   11dc8:	11812683          	lw	a3,280(sp)
   11dcc:	12013a83          	ld	s5,288(sp)
   11dd0:	1a010313          	addi	t1,sp,416
   11dd4:	0016869b          	addiw	a3,a3,1
   11dd8:	19010a13          	addi	s4,sp,400
   11ddc:	a09ff06f          	j	117e4 <_vfprintf_r+0x101c>
   11de0:	000217b7          	lui	a5,0x21
   11de4:	f8878793          	addi	a5,a5,-120 # 20f88 <key+0x88>
   11de8:	000c8313          	mv	t1,s9
   11dec:	04f13423          	sd	a5,72(sp)
   11df0:	00813683          	ld	a3,8(sp)
   11df4:	0204f793          	andi	a5,s1,32
   11df8:	00868713          	addi	a4,a3,8
   11dfc:	12078c63          	beqz	a5,11f34 <_vfprintf_r+0x176c>
   11e00:	0006b983          	ld	s3,0(a3)
   11e04:	0014f793          	andi	a5,s1,1
   11e08:	00078e63          	beqz	a5,11e24 <_vfprintf_r+0x165c>
   11e0c:	00098c63          	beqz	s3,11e24 <_vfprintf_r+0x165c>
   11e10:	0024e493          	ori	s1,s1,2
   11e14:	03000793          	li	a5,48
   11e18:	0ef10023          	sb	a5,224(sp)
   11e1c:	0f5100a3          	sb	s5,225(sp)
   11e20:	0004849b          	sext.w	s1,s1
   11e24:	bff4f493          	andi	s1,s1,-1025
   11e28:	00048b1b          	sext.w	s6,s1
   11e2c:	00e13423          	sd	a4,8(sp)
   11e30:	00200793          	li	a5,2
   11e34:	b90ff06f          	j	111c4 <_vfprintf_r+0x9fc>
   11e38:	000c8313          	mv	t1,s9
   11e3c:	00048b13          	mv	s6,s1
   11e40:	b68ff06f          	j	111a8 <_vfprintf_r+0x9e0>
   11e44:	000217b7          	lui	a5,0x21
   11e48:	f7078793          	addi	a5,a5,-144 # 20f70 <key+0x70>
   11e4c:	000c8313          	mv	t1,s9
   11e50:	04f13423          	sd	a5,72(sp)
   11e54:	f9dff06f          	j	11df0 <_vfprintf_r+0x1628>
   11e58:	000c8313          	mv	t1,s9
   11e5c:	c30ff06f          	j	1128c <_vfprintf_r+0xac4>
   11e60:	11010613          	addi	a2,sp,272
   11e64:	000b8593          	mv	a1,s7
   11e68:	000c0513          	mv	a0,s8
   11e6c:	64c090ef          	jal	ra,1b4b8 <__sprint_r>
   11e70:	88051ae3          	bnez	a0,11704 <_vfprintf_r+0xf3c>
   11e74:	12013783          	ld	a5,288(sp)
   11e78:	19010313          	addi	t1,sp,400
   11e7c:	e80ff06f          	j	114fc <_vfprintf_r+0xd34>
   11e80:	2004e493          	ori	s1,s1,512
   11e84:	00144e83          	lbu	t4,1(s0)
   11e88:	0004849b          	sext.w	s1,s1
   11e8c:	00140413          	addi	s0,s0,1
   11e90:	afdfe06f          	j	1098c <_vfprintf_r+0x1c4>
   11e94:	0204e493          	ori	s1,s1,32
   11e98:	00144e83          	lbu	t4,1(s0)
   11e9c:	0004849b          	sext.w	s1,s1
   11ea0:	00140413          	addi	s0,s0,1
   11ea4:	ae9fe06f          	j	1098c <_vfprintf_r+0x1c4>
   11ea8:	00600793          	li	a5,6
   11eac:	000d8a1b          	sext.w	s4,s11
   11eb0:	59b7ec63          	bltu	a5,s11,12448 <_vfprintf_r+0x1c80>
   11eb4:	00021837          	lui	a6,0x21
   11eb8:	000a0993          	mv	s3,s4
   11ebc:	01913423          	sd	s9,8(sp)
   11ec0:	fa080d13          	addi	s10,a6,-96 # 20fa0 <key+0xa0>
   11ec4:	b49fe06f          	j	10a0c <_vfprintf_r+0x244>
   11ec8:	000218b7          	lui	a7,0x21
   11ecc:	01000693          	li	a3,16
   11ed0:	11812703          	lw	a4,280(sp)
   11ed4:	13088c93          	addi	s9,a7,304 # 21130 <zeroes.4519>
   11ed8:	01000d93          	li	s11,16
   11edc:	00700a93          	li	s5,7
   11ee0:	0146c863          	blt	a3,s4,11ef0 <_vfprintf_r+0x1728>
   11ee4:	2b40006f          	j	12198 <_vfprintf_r+0x19d0>
   11ee8:	ff0a0a1b          	addiw	s4,s4,-16
   11eec:	2b4dd663          	bge	s11,s4,12198 <_vfprintf_r+0x19d0>
   11ef0:	0017071b          	addiw	a4,a4,1
   11ef4:	01078793          	addi	a5,a5,16
   11ef8:	01933023          	sd	s9,0(t1)
   11efc:	01b33423          	sd	s11,8(t1)
   11f00:	12f13023          	sd	a5,288(sp)
   11f04:	10e12c23          	sw	a4,280(sp)
   11f08:	01030313          	addi	t1,t1,16
   11f0c:	fceadee3          	bge	s5,a4,11ee8 <_vfprintf_r+0x1720>
   11f10:	11010613          	addi	a2,sp,272
   11f14:	000b8593          	mv	a1,s7
   11f18:	000c0513          	mv	a0,s8
   11f1c:	59c090ef          	jal	ra,1b4b8 <__sprint_r>
   11f20:	fe051263          	bnez	a0,11704 <_vfprintf_r+0xf3c>
   11f24:	12013783          	ld	a5,288(sp)
   11f28:	11812703          	lw	a4,280(sp)
   11f2c:	19010313          	addi	t1,sp,400
   11f30:	fb9ff06f          	j	11ee8 <_vfprintf_r+0x1720>
   11f34:	0104f793          	andi	a5,s1,16
   11f38:	0e078a63          	beqz	a5,1202c <_vfprintf_r+0x1864>
   11f3c:	00813783          	ld	a5,8(sp)
   11f40:	0007b983          	ld	s3,0(a5)
   11f44:	ec1ff06f          	j	11e04 <_vfprintf_r+0x163c>
   11f48:	11010613          	addi	a2,sp,272
   11f4c:	000b8593          	mv	a1,s7
   11f50:	000c0513          	mv	a0,s8
   11f54:	564090ef          	jal	ra,1b4b8 <__sprint_r>
   11f58:	fa051663          	bnez	a0,11704 <_vfprintf_r+0xf3c>
   11f5c:	12013a83          	ld	s5,288(sp)
   11f60:	11812703          	lw	a4,280(sp)
   11f64:	19010a13          	addi	s4,sp,400
   11f68:	fecff06f          	j	11754 <_vfprintf_r+0xf8c>
   11f6c:	11010613          	addi	a2,sp,272
   11f70:	000b8593          	mv	a1,s7
   11f74:	000c0513          	mv	a0,s8
   11f78:	540090ef          	jal	ra,1b4b8 <__sprint_r>
   11f7c:	f8051463          	bnez	a0,11704 <_vfprintf_r+0xf3c>
   11f80:	12013a83          	ld	s5,288(sp)
   11f84:	11812b03          	lw	s6,280(sp)
   11f88:	19010a13          	addi	s4,sp,400
   11f8c:	ff4ff06f          	j	11780 <_vfprintf_r+0xfb8>
   11f90:	11812703          	lw	a4,280(sp)
   11f94:	000216b7          	lui	a3,0x21
   11f98:	fa868693          	addi	a3,a3,-88 # 20fa8 <key+0xa8>
   11f9c:	0017071b          	addiw	a4,a4,1
   11fa0:	00d33023          	sd	a3,0(t1)
   11fa4:	00178793          	addi	a5,a5,1
   11fa8:	00100693          	li	a3,1
   11fac:	00d33423          	sd	a3,8(t1)
   11fb0:	10e12c23          	sw	a4,280(sp)
   11fb4:	0007069b          	sext.w	a3,a4
   11fb8:	12f13023          	sd	a5,288(sp)
   11fbc:	00700713          	li	a4,7
   11fc0:	01030313          	addi	t1,t1,16
   11fc4:	42d74a63          	blt	a4,a3,123f8 <_vfprintf_r+0x1c30>
   11fc8:	00060463          	beqz	a2,11fd0 <_vfprintf_r+0x1808>
   11fcc:	f59fe06f          	j	10f24 <_vfprintf_r+0x75c>
   11fd0:	02013683          	ld	a3,32(sp)
   11fd4:	0014f713          	andi	a4,s1,1
   11fd8:	00e6e733          	or	a4,a3,a4
   11fdc:	00071463          	bnez	a4,11fe4 <_vfprintf_r+0x181c>
   11fe0:	b1dfe06f          	j	10afc <_vfprintf_r+0x334>
   11fe4:	04013703          	ld	a4,64(sp)
   11fe8:	03813683          	ld	a3,56(sp)
   11fec:	00e33023          	sd	a4,0(t1)
   11ff0:	11812703          	lw	a4,280(sp)
   11ff4:	00d787b3          	add	a5,a5,a3
   11ff8:	00d33423          	sd	a3,8(t1)
   11ffc:	0017071b          	addiw	a4,a4,1
   12000:	0007069b          	sext.w	a3,a4
   12004:	10e12c23          	sw	a4,280(sp)
   12008:	12f13023          	sd	a5,288(sp)
   1200c:	00700713          	li	a4,7
   12010:	00d75463          	bge	a4,a3,12018 <_vfprintf_r+0x1850>
   12014:	f45fe06f          	j	10f58 <_vfprintf_r+0x790>
   12018:	01030313          	addi	t1,t1,16
   1201c:	f69fe06f          	j	10f84 <_vfprintf_r+0x7bc>
   12020:	00040c13          	mv	s8,s0
   12024:	00048b93          	mv	s7,s1
   12028:	edcff06f          	j	11704 <_vfprintf_r+0xf3c>
   1202c:	00813683          	ld	a3,8(sp)
   12030:	0404f793          	andi	a5,s1,64
   12034:	0006a983          	lw	s3,0(a3)
   12038:	10078063          	beqz	a5,12138 <_vfprintf_r+0x1970>
   1203c:	03099993          	slli	s3,s3,0x30
   12040:	0309d993          	srli	s3,s3,0x30
   12044:	dc1ff06f          	j	11e04 <_vfprintf_r+0x163c>
   12048:	11010613          	addi	a2,sp,272
   1204c:	000b8593          	mv	a1,s7
   12050:	000c0513          	mv	a0,s8
   12054:	464090ef          	jal	ra,1b4b8 <__sprint_r>
   12058:	ea051663          	bnez	a0,11704 <_vfprintf_r+0xf3c>
   1205c:	12013783          	ld	a5,288(sp)
   12060:	19010313          	addi	t1,sp,400
   12064:	c58ff06f          	j	114bc <_vfprintf_r+0xcf4>
   12068:	0017069b          	addiw	a3,a4,1
   1206c:	00068713          	mv	a4,a3
   12070:	014787b3          	add	a5,a5,s4
   12074:	01933023          	sd	s9,0(t1)
   12078:	a6dfe06f          	j	10ae4 <_vfprintf_r+0x31c>
   1207c:	10013503          	ld	a0,256(sp)
   12080:	10813583          	ld	a1,264(sp)
   12084:	00000613          	li	a2,0
   12088:	00000693          	li	a3,0
   1208c:	3410d0ef          	jal	ra,1fbcc <__letf2>
   12090:	01013303          	ld	t1,16(sp)
   12094:	78054a63          	bltz	a0,12828 <_vfprintf_r+0x2060>
   12098:	0df14783          	lbu	a5,223(sp)
   1209c:	04700713          	li	a4,71
   120a0:	37574e63          	blt	a4,s5,1241c <_vfprintf_r+0x1c54>
   120a4:	00021837          	lui	a6,0x21
   120a8:	f5080d13          	addi	s10,a6,-176 # 20f50 <key+0x50>
   120ac:	f7f4f493          	andi	s1,s1,-129
   120b0:	00013823          	sd	zero,16(sp)
   120b4:	02013823          	sd	zero,48(sp)
   120b8:	02013423          	sd	zero,40(sp)
   120bc:	00013c23          	sd	zero,24(sp)
   120c0:	0004849b          	sext.w	s1,s1
   120c4:	00300993          	li	s3,3
   120c8:	00300a13          	li	s4,3
   120cc:	00000d93          	li	s11,0
   120d0:	00078463          	beqz	a5,120d8 <_vfprintf_r+0x1910>
   120d4:	fadfe06f          	j	11080 <_vfprintf_r+0x8b8>
   120d8:	949fe06f          	j	10a20 <_vfprintf_r+0x258>
   120dc:	000d0513          	mv	a0,s10
   120e0:	06613423          	sd	t1,104(sp)
   120e4:	371060ef          	jal	ra,18c54 <strlen>
   120e8:	00050a1b          	sext.w	s4,a0
   120ec:	fffa4993          	not	s3,s4
   120f0:	0df14783          	lbu	a5,223(sp)
   120f4:	43f9d993          	srai	s3,s3,0x3f
   120f8:	013a79b3          	and	s3,s4,s3
   120fc:	01913423          	sd	s9,8(sp)
   12100:	00013823          	sd	zero,16(sp)
   12104:	02013823          	sd	zero,48(sp)
   12108:	02013423          	sd	zero,40(sp)
   1210c:	00013c23          	sd	zero,24(sp)
   12110:	06813303          	ld	t1,104(sp)
   12114:	0009899b          	sext.w	s3,s3
   12118:	00000d93          	li	s11,0
   1211c:	00078463          	beqz	a5,12124 <_vfprintf_r+0x195c>
   12120:	f61fe06f          	j	11080 <_vfprintf_r+0x8b8>
   12124:	8fdfe06f          	j	10a20 <_vfprintf_r+0x258>
   12128:	2004f793          	andi	a5,s1,512
   1212c:	38078263          	beqz	a5,124b0 <_vfprintf_r+0x1ce8>
   12130:	0ff9f993          	andi	s3,s3,255
   12134:	96cff06f          	j	112a0 <_vfprintf_r+0xad8>
   12138:	2004f793          	andi	a5,s1,512
   1213c:	36078463          	beqz	a5,124a4 <_vfprintf_r+0x1cdc>
   12140:	0ff9f993          	andi	s3,s3,255
   12144:	cc1ff06f          	j	11e04 <_vfprintf_r+0x163c>
   12148:	2004f793          	andi	a5,s1,512
   1214c:	34078463          	beqz	a5,12494 <_vfprintf_r+0x1ccc>
   12150:	00813783          	ld	a5,8(sp)
   12154:	00078983          	lb	s3,0(a5)
   12158:	00098793          	mv	a5,s3
   1215c:	8f0ff06f          	j	1124c <_vfprintf_r+0xa84>
   12160:	200b7793          	andi	a5,s6,512
   12164:	30078e63          	beqz	a5,12480 <_vfprintf_r+0x1cb8>
   12168:	0ff9f993          	andi	s3,s3,255
   1216c:	00e13423          	sd	a4,8(sp)
   12170:	00100793          	li	a5,1
   12174:	850ff06f          	j	111c4 <_vfprintf_r+0x9fc>
   12178:	10813783          	ld	a5,264(sp)
   1217c:	3407c063          	bltz	a5,124bc <_vfprintf_r+0x1cf4>
   12180:	0df14783          	lbu	a5,223(sp)
   12184:	04700713          	li	a4,71
   12188:	035752e3          	bge	a4,s5,129ac <_vfprintf_r+0x21e4>
   1218c:	00021837          	lui	a6,0x21
   12190:	f6880d13          	addi	s10,a6,-152 # 20f68 <key+0x68>
   12194:	f19ff06f          	j	120ac <_vfprintf_r+0x18e4>
   12198:	0017069b          	addiw	a3,a4,1
   1219c:	014787b3          	add	a5,a5,s4
   121a0:	01933023          	sd	s9,0(t1)
   121a4:	01433423          	sd	s4,8(t1)
   121a8:	12f13023          	sd	a5,288(sp)
   121ac:	10d12c23          	sw	a3,280(sp)
   121b0:	00700713          	li	a4,7
   121b4:	01030313          	addi	t1,t1,16
   121b8:	8ed754e3          	bge	a4,a3,11aa0 <_vfprintf_r+0x12d8>
   121bc:	11010613          	addi	a2,sp,272
   121c0:	000b8593          	mv	a1,s7
   121c4:	000c0513          	mv	a0,s8
   121c8:	2f0090ef          	jal	ra,1b4b8 <__sprint_r>
   121cc:	d2051c63          	bnez	a0,11704 <_vfprintf_r+0xf3c>
   121d0:	12013783          	ld	a5,288(sp)
   121d4:	19010313          	addi	t1,sp,400
   121d8:	8c9ff06f          	j	11aa0 <_vfprintf_r+0x12d8>
   121dc:	02013703          	ld	a4,32(sp)
   121e0:	06913423          	sd	s1,104(sp)
   121e4:	03013483          	ld	s1,48(sp)
   121e8:	03313823          	sd	s3,48(sp)
   121ec:	02813983          	ld	s3,40(sp)
   121f0:	00ed0733          	add	a4,s10,a4
   121f4:	00021eb7          	lui	t4,0x21
   121f8:	00813c23          	sd	s0,24(sp)
   121fc:	07213823          	sd	s2,112(sp)
   12200:	03a13423          	sd	s10,40(sp)
   12204:	06013403          	ld	s0,96(sp)
   12208:	000b8d13          	mv	s10,s7
   1220c:	07813903          	ld	s2,120(sp)
   12210:	00700a13          	li	s4,7
   12214:	01000d93          	li	s11,16
   12218:	130e8c93          	addi	s9,t4,304 # 21130 <zeroes.4519>
   1221c:	00070b93          	mv	s7,a4
   12220:	0a098063          	beqz	s3,122c0 <_vfprintf_r+0x1af8>
   12224:	0a049063          	bnez	s1,122c4 <_vfprintf_r+0x1afc>
   12228:	fff40413          	addi	s0,s0,-1
   1222c:	fff9899b          	addiw	s3,s3,-1
   12230:	05813703          	ld	a4,88(sp)
   12234:	012787b3          	add	a5,a5,s2
   12238:	01233423          	sd	s2,8(t1)
   1223c:	00e33023          	sd	a4,0(t1)
   12240:	11812703          	lw	a4,280(sp)
   12244:	12f13023          	sd	a5,288(sp)
   12248:	01030313          	addi	t1,t1,16
   1224c:	0017069b          	addiw	a3,a4,1
   12250:	10d12c23          	sw	a3,280(sp)
   12254:	10da4063          	blt	s4,a3,12354 <_vfprintf_r+0x1b8c>
   12258:	00044603          	lbu	a2,0(s0)
   1225c:	415b853b          	subw	a0,s7,s5
   12260:	0006071b          	sext.w	a4,a2
   12264:	00070693          	mv	a3,a4
   12268:	00e55463          	bge	a0,a4,12270 <_vfprintf_r+0x1aa8>
   1226c:	00050693          	mv	a3,a0
   12270:	00068b1b          	sext.w	s6,a3
   12274:	03605863          	blez	s6,122a4 <_vfprintf_r+0x1adc>
   12278:	11812703          	lw	a4,280(sp)
   1227c:	016787b3          	add	a5,a5,s6
   12280:	01533023          	sd	s5,0(t1)
   12284:	0017061b          	addiw	a2,a4,1
   12288:	01633423          	sd	s6,8(t1)
   1228c:	12f13023          	sd	a5,288(sp)
   12290:	10c12c23          	sw	a2,280(sp)
   12294:	0eca4063          	blt	s4,a2,12374 <_vfprintf_r+0x1bac>
   12298:	00044603          	lbu	a2,0(s0)
   1229c:	01030313          	addi	t1,t1,16
   122a0:	0006071b          	sext.w	a4,a2
   122a4:	fffb4513          	not	a0,s6
   122a8:	43f55513          	srai	a0,a0,0x3f
   122ac:	00ab76b3          	and	a3,s6,a0
   122b0:	40d70b3b          	subw	s6,a4,a3
   122b4:	01604c63          	bgtz	s6,122cc <_vfprintf_r+0x1b04>
   122b8:	00ca8ab3          	add	s5,s5,a2
   122bc:	f60994e3          	bnez	s3,12224 <_vfprintf_r+0x1a5c>
   122c0:	44048c63          	beqz	s1,12718 <_vfprintf_r+0x1f50>
   122c4:	fff4849b          	addiw	s1,s1,-1
   122c8:	f69ff06f          	j	12230 <_vfprintf_r+0x1a68>
   122cc:	11812683          	lw	a3,280(sp)
   122d0:	016dc863          	blt	s11,s6,122e0 <_vfprintf_r+0x1b18>
   122d4:	0540006f          	j	12328 <_vfprintf_r+0x1b60>
   122d8:	ff0b0b1b          	addiw	s6,s6,-16
   122dc:	056dd663          	bge	s11,s6,12328 <_vfprintf_r+0x1b60>
   122e0:	0016869b          	addiw	a3,a3,1
   122e4:	01078793          	addi	a5,a5,16
   122e8:	01933023          	sd	s9,0(t1)
   122ec:	01b33423          	sd	s11,8(t1)
   122f0:	12f13023          	sd	a5,288(sp)
   122f4:	10d12c23          	sw	a3,280(sp)
   122f8:	01030313          	addi	t1,t1,16
   122fc:	fcda5ee3          	bge	s4,a3,122d8 <_vfprintf_r+0x1b10>
   12300:	11010613          	addi	a2,sp,272
   12304:	000d0593          	mv	a1,s10
   12308:	000c0513          	mv	a0,s8
   1230c:	1ac090ef          	jal	ra,1b4b8 <__sprint_r>
   12310:	4c051263          	bnez	a0,127d4 <_vfprintf_r+0x200c>
   12314:	ff0b0b1b          	addiw	s6,s6,-16
   12318:	12013783          	ld	a5,288(sp)
   1231c:	11812683          	lw	a3,280(sp)
   12320:	19010313          	addi	t1,sp,400
   12324:	fb6dcee3          	blt	s11,s6,122e0 <_vfprintf_r+0x1b18>
   12328:	0016871b          	addiw	a4,a3,1
   1232c:	016787b3          	add	a5,a5,s6
   12330:	01933023          	sd	s9,0(t1)
   12334:	01633423          	sd	s6,8(t1)
   12338:	12f13023          	sd	a5,288(sp)
   1233c:	10e12c23          	sw	a4,280(sp)
   12340:	4cea4063          	blt	s4,a4,12800 <_vfprintf_r+0x2038>
   12344:	00044603          	lbu	a2,0(s0)
   12348:	01030313          	addi	t1,t1,16
   1234c:	00ca8ab3          	add	s5,s5,a2
   12350:	f6dff06f          	j	122bc <_vfprintf_r+0x1af4>
   12354:	11010613          	addi	a2,sp,272
   12358:	000d0593          	mv	a1,s10
   1235c:	000c0513          	mv	a0,s8
   12360:	158090ef          	jal	ra,1b4b8 <__sprint_r>
   12364:	46051863          	bnez	a0,127d4 <_vfprintf_r+0x200c>
   12368:	12013783          	ld	a5,288(sp)
   1236c:	19010313          	addi	t1,sp,400
   12370:	ee9ff06f          	j	12258 <_vfprintf_r+0x1a90>
   12374:	11010613          	addi	a2,sp,272
   12378:	000d0593          	mv	a1,s10
   1237c:	000c0513          	mv	a0,s8
   12380:	138090ef          	jal	ra,1b4b8 <__sprint_r>
   12384:	44051863          	bnez	a0,127d4 <_vfprintf_r+0x200c>
   12388:	00044603          	lbu	a2,0(s0)
   1238c:	12013783          	ld	a5,288(sp)
   12390:	19010313          	addi	t1,sp,400
   12394:	0006071b          	sext.w	a4,a2
   12398:	f0dff06f          	j	122a4 <_vfprintf_r+0x1adc>
   1239c:	07813783          	ld	a5,120(sp)
   123a0:	05813583          	ld	a1,88(sp)
   123a4:	02d13023          	sd	a3,32(sp)
   123a8:	40fd0d33          	sub	s10,s10,a5
   123ac:	00078613          	mv	a2,a5
   123b0:	000d0513          	mv	a0,s10
   123b4:	00613c23          	sd	t1,24(sp)
   123b8:	01013823          	sd	a6,16(sp)
   123bc:	161060ef          	jal	ra,18d1c <strncpy>
   123c0:	01013803          	ld	a6,16(sp)
   123c4:	0299d7b3          	divu	a5,s3,s1
   123c8:	01813303          	ld	t1,24(sp)
   123cc:	00184603          	lbu	a2,1(a6)
   123d0:	02013683          	ld	a3,32(sp)
   123d4:	00000593          	li	a1,0
   123d8:	00c03633          	snez	a2,a2
   123dc:	00c80833          	add	a6,a6,a2
   123e0:	00900713          	li	a4,9
   123e4:	82cff06f          	j	11410 <_vfprintf_r+0xc48>
   123e8:	0016869b          	addiw	a3,a3,1
   123ec:	01060313          	addi	t1,a2,16
   123f0:	00060a13          	mv	s4,a2
   123f4:	bf0ff06f          	j	117e4 <_vfprintf_r+0x101c>
   123f8:	11010613          	addi	a2,sp,272
   123fc:	000b8593          	mv	a1,s7
   12400:	000c0513          	mv	a0,s8
   12404:	0b4090ef          	jal	ra,1b4b8 <__sprint_r>
   12408:	ae051e63          	bnez	a0,11704 <_vfprintf_r+0xf3c>
   1240c:	0e812603          	lw	a2,232(sp)
   12410:	12013783          	ld	a5,288(sp)
   12414:	19010313          	addi	t1,sp,400
   12418:	bb1ff06f          	j	11fc8 <_vfprintf_r+0x1800>
   1241c:	00021837          	lui	a6,0x21
   12420:	f5880d13          	addi	s10,a6,-168 # 20f58 <key+0x58>
   12424:	c89ff06f          	j	120ac <_vfprintf_r+0x18e4>
   12428:	11010613          	addi	a2,sp,272
   1242c:	000b8593          	mv	a1,s7
   12430:	000c0513          	mv	a0,s8
   12434:	084090ef          	jal	ra,1b4b8 <__sprint_r>
   12438:	ac051663          	bnez	a0,11704 <_vfprintf_r+0xf3c>
   1243c:	12013783          	ld	a5,288(sp)
   12440:	19010313          	addi	t1,sp,400
   12444:	e44ff06f          	j	11a88 <_vfprintf_r+0x12c0>
   12448:	00600a13          	li	s4,6
   1244c:	a69ff06f          	j	11eb4 <_vfprintf_r+0x16ec>
   12450:	02013683          	ld	a3,32(sp)
   12454:	00dd0833          	add	a6,s10,a3
   12458:	40e6863b          	subw	a2,a3,a4
   1245c:	41580f3b          	subw	t5,a6,s5
   12460:	00060a13          	mv	s4,a2
   12464:	eecf5063          	bge	t5,a2,11b44 <_vfprintf_r+0x137c>
   12468:	000f0a1b          	sext.w	s4,t5
   1246c:	ed8ff06f          	j	11b44 <_vfprintf_r+0x137c>
   12470:	00013783          	ld	a5,0(sp)
   12474:	00040d13          	mv	s10,s0
   12478:	00f71023          	sh	a5,0(a4)
   1247c:	eccfe06f          	j	10b48 <_vfprintf_r+0x380>
   12480:	02099993          	slli	s3,s3,0x20
   12484:	0209d993          	srli	s3,s3,0x20
   12488:	00e13423          	sd	a4,8(sp)
   1248c:	00100793          	li	a5,1
   12490:	d35fe06f          	j	111c4 <_vfprintf_r+0x9fc>
   12494:	00813783          	ld	a5,8(sp)
   12498:	0007a983          	lw	s3,0(a5)
   1249c:	00098793          	mv	a5,s3
   124a0:	dadfe06f          	j	1124c <_vfprintf_r+0xa84>
   124a4:	02099993          	slli	s3,s3,0x20
   124a8:	0209d993          	srli	s3,s3,0x20
   124ac:	959ff06f          	j	11e04 <_vfprintf_r+0x163c>
   124b0:	02099993          	slli	s3,s3,0x20
   124b4:	0209d993          	srli	s3,s3,0x20
   124b8:	de9fe06f          	j	112a0 <_vfprintf_r+0xad8>
   124bc:	02d00793          	li	a5,45
   124c0:	0cf10fa3          	sb	a5,223(sp)
   124c4:	cc1ff06f          	j	12184 <_vfprintf_r+0x19bc>
   124c8:	11010613          	addi	a2,sp,272
   124cc:	000b8593          	mv	a1,s7
   124d0:	000c0513          	mv	a0,s8
   124d4:	7e5080ef          	jal	ra,1b4b8 <__sprint_r>
   124d8:	e84fe06f          	j	10b5c <_vfprintf_r+0x394>
   124dc:	03000793          	li	a5,48
   124e0:	0ef10023          	sb	a5,224(sp)
   124e4:	05800713          	li	a4,88
   124e8:	0024e793          	ori	a5,s1,2
   124ec:	0007879b          	sext.w	a5,a5
   124f0:	0ee100a3          	sb	a4,225(sp)
   124f4:	02f13823          	sd	a5,48(sp)
   124f8:	06300713          	li	a4,99
   124fc:	00013823          	sd	zero,16(sp)
   12500:	12810d13          	addi	s10,sp,296
   12504:	59b74c63          	blt	a4,s11,12a9c <_vfprintf_r+0x22d4>
   12508:	10813a03          	ld	s4,264(sp)
   1250c:	fdfaf713          	andi	a4,s5,-33
   12510:	1024e493          	ori	s1,s1,258
   12514:	02e13423          	sd	a4,40(sp)
   12518:	06013423          	sd	zero,104(sp)
   1251c:	10013b03          	ld	s6,256(sp)
   12520:	0004849b          	sext.w	s1,s1
   12524:	2c0a4263          	bltz	s4,127e8 <_vfprintf_r+0x2020>
   12528:	06100793          	li	a5,97
   1252c:	7efa8663          	beq	s5,a5,12d18 <_vfprintf_r+0x2550>
   12530:	04100793          	li	a5,65
   12534:	00fa8463          	beq	s5,a5,1253c <_vfprintf_r+0x1d74>
   12538:	fb8fe06f          	j	10cf0 <_vfprintf_r+0x528>
   1253c:	000a0593          	mv	a1,s4
   12540:	000b0513          	mv	a0,s6
   12544:	02613023          	sd	t1,32(sp)
   12548:	7a40e0ef          	jal	ra,20cec <__trunctfdf2>
   1254c:	0e810593          	addi	a1,sp,232
   12550:	200060ef          	jal	ra,18750 <frexp>
   12554:	6a80e0ef          	jal	ra,20bfc <__extenddftf2>
   12558:	00fff7b7          	lui	a5,0xfff
   1255c:	02679693          	slli	a3,a5,0x26
   12560:	00000613          	li	a2,0
   12564:	7480d0ef          	jal	ra,1fcac <__multf3>
   12568:	00000613          	li	a2,0
   1256c:	00000693          	li	a3,0
   12570:	00050a13          	mv	s4,a0
   12574:	00b13c23          	sd	a1,24(sp)
   12578:	4e80d0ef          	jal	ra,1fa60 <__eqtf2>
   1257c:	01813f03          	ld	t5,24(sp)
   12580:	02013303          	ld	t1,32(sp)
   12584:	00051663          	bnez	a0,12590 <_vfprintf_r+0x1dc8>
   12588:	00100793          	li	a5,1
   1258c:	0ef12423          	sw	a5,232(sp)
   12590:	000217b7          	lui	a5,0x21
   12594:	f7078793          	addi	a5,a5,-144 # 20f70 <key+0x70>
   12598:	00f13c23          	sd	a5,24(sp)
   1259c:	020d9793          	slli	a5,s11,0x20
   125a0:	0207d793          	srli	a5,a5,0x20
   125a4:	00178793          	addi	a5,a5,1
   125a8:	00fd07b3          	add	a5,s10,a5
   125ac:	01bd073b          	addw	a4,s10,s11
   125b0:	06813823          	sd	s0,112(sp)
   125b4:	09513c23          	sd	s5,152(sp)
   125b8:	0a913023          	sd	s1,160(sp)
   125bc:	0b213423          	sd	s2,168(sp)
   125c0:	0d713023          	sd	s7,192(sp)
   125c4:	01813483          	ld	s1,24(sp)
   125c8:	00078413          	mv	s0,a5
   125cc:	0a613823          	sd	t1,176(sp)
   125d0:	000d0a93          	mv	s5,s10
   125d4:	0b813c23          	sd	s8,184(sp)
   125d8:	0da13423          	sd	s10,200(sp)
   125dc:	000a0b13          	mv	s6,s4
   125e0:	000f0b93          	mv	s7,t5
   125e4:	00070913          	mv	s2,a4
   125e8:	0140006f          	j	125fc <_vfprintf_r+0x1e34>
   125ec:	00000613          	li	a2,0
   125f0:	00000693          	li	a3,0
   125f4:	46c0d0ef          	jal	ra,1fa60 <__eqtf2>
   125f8:	60050463          	beqz	a0,12c00 <_vfprintf_r+0x2438>
   125fc:	08013683          	ld	a3,128(sp)
   12600:	00000613          	li	a2,0
   12604:	000b0513          	mv	a0,s6
   12608:	000b8593          	mv	a1,s7
   1260c:	6a00d0ef          	jal	ra,1fcac <__multf3>
   12610:	00058993          	mv	s3,a1
   12614:	00050a13          	mv	s4,a0
   12618:	4f00e0ef          	jal	ra,20b08 <__fixtfsi>
   1261c:	00050c1b          	sext.w	s8,a0
   12620:	000c0513          	mv	a0,s8
   12624:	54c0e0ef          	jal	ra,20b70 <__floatsitf>
   12628:	00058693          	mv	a3,a1
   1262c:	00050613          	mv	a2,a0
   12630:	00098593          	mv	a1,s3
   12634:	000a0513          	mv	a0,s4
   12638:	4fd0d0ef          	jal	ra,20334 <__subtf3>
   1263c:	018486b3          	add	a3,s1,s8
   12640:	0006c683          	lbu	a3,0(a3)
   12644:	000a8a13          	mv	s4,s5
   12648:	001a8a93          	addi	s5,s5,1
   1264c:	feda8fa3          	sb	a3,-1(s5)
   12650:	00050c93          	mv	s9,a0
   12654:	00058d13          	mv	s10,a1
   12658:	00050b13          	mv	s6,a0
   1265c:	00058b93          	mv	s7,a1
   12660:	415909bb          	subw	s3,s2,s5
   12664:	f95414e3          	bne	s0,s5,125ec <_vfprintf_r+0x1e24>
   12668:	000c0993          	mv	s3,s8
   1266c:	000a8c93          	mv	s9,s5
   12670:	07013403          	ld	s0,112(sp)
   12674:	0a013483          	ld	s1,160(sp)
   12678:	0a813903          	ld	s2,168(sp)
   1267c:	0b013303          	ld	t1,176(sp)
   12680:	0b813c03          	ld	s8,184(sp)
   12684:	0c013b83          	ld	s7,192(sp)
   12688:	09813a83          	ld	s5,152(sp)
   1268c:	0c813d03          	ld	s10,200(sp)
   12690:	fff00793          	li	a5,-1
   12694:	00050893          	mv	a7,a0
   12698:	00058b13          	mv	s6,a1
   1269c:	02f13023          	sd	a5,32(sp)
   126a0:	08813683          	ld	a3,136(sp)
   126a4:	00000613          	li	a2,0
   126a8:	00088513          	mv	a0,a7
   126ac:	000b0593          	mv	a1,s6
   126b0:	06613823          	sd	t1,112(sp)
   126b4:	09113c23          	sd	a7,152(sp)
   126b8:	4340d0ef          	jal	ra,1faec <__getf2>
   126bc:	07013303          	ld	t1,112(sp)
   126c0:	44a04c63          	bgtz	a0,12b18 <_vfprintf_r+0x2350>
   126c4:	09813883          	ld	a7,152(sp)
   126c8:	08813683          	ld	a3,136(sp)
   126cc:	00000613          	li	a2,0
   126d0:	00088513          	mv	a0,a7
   126d4:	000b0593          	mv	a1,s6
   126d8:	3880d0ef          	jal	ra,1fa60 <__eqtf2>
   126dc:	07013303          	ld	t1,112(sp)
   126e0:	00051663          	bnez	a0,126ec <_vfprintf_r+0x1f24>
   126e4:	0019f993          	andi	s3,s3,1
   126e8:	42099863          	bnez	s3,12b18 <_vfprintf_r+0x2350>
   126ec:	02013783          	ld	a5,32(sp)
   126f0:	03000693          	li	a3,48
   126f4:	00178713          	addi	a4,a5,1
   126f8:	00ec8733          	add	a4,s9,a4
   126fc:	0007c863          	bltz	a5,1270c <_vfprintf_r+0x1f44>
   12700:	001c8c93          	addi	s9,s9,1
   12704:	fedc8fa3          	sb	a3,-1(s9)
   12708:	ff971ce3          	bne	a4,s9,12700 <_vfprintf_r+0x1f38>
   1270c:	41ac87bb          	subw	a5,s9,s10
   12710:	02f13023          	sd	a5,32(sp)
   12714:	e80fe06f          	j	10d94 <_vfprintf_r+0x5cc>
   12718:	02013703          	ld	a4,32(sp)
   1271c:	000d0b93          	mv	s7,s10
   12720:	02813d03          	ld	s10,40(sp)
   12724:	06813023          	sd	s0,96(sp)
   12728:	06813483          	ld	s1,104(sp)
   1272c:	00ed0733          	add	a4,s10,a4
   12730:	01813403          	ld	s0,24(sp)
   12734:	07013903          	ld	s2,112(sp)
   12738:	03013983          	ld	s3,48(sp)
   1273c:	b7577a63          	bgeu	a4,s5,11ab0 <_vfprintf_r+0x12e8>
   12740:	00070a93          	mv	s5,a4
   12744:	b6cff06f          	j	11ab0 <_vfprintf_r+0x12e8>
   12748:	01813703          	ld	a4,24(sp)
   1274c:	ffd00793          	li	a5,-3
   12750:	00f74463          	blt	a4,a5,12758 <_vfprintf_r+0x1f90>
   12754:	00edda63          	bge	s11,a4,12768 <_vfprintf_r+0x1fa0>
   12758:	ffea8a9b          	addiw	s5,s5,-2
   1275c:	fdfaf793          	andi	a5,s5,-33
   12760:	02f13423          	sd	a5,40(sp)
   12764:	e58fe06f          	j	10dbc <_vfprintf_r+0x5f4>
   12768:	02013783          	ld	a5,32(sp)
   1276c:	01813703          	ld	a4,24(sp)
   12770:	24f74463          	blt	a4,a5,129b8 <_vfprintf_r+0x21f0>
   12774:	03013783          	ld	a5,48(sp)
   12778:	00070a13          	mv	s4,a4
   1277c:	0017f793          	andi	a5,a5,1
   12780:	00078663          	beqz	a5,1278c <_vfprintf_r+0x1fc4>
   12784:	03813783          	ld	a5,56(sp)
   12788:	00e78a3b          	addw	s4,a5,a4
   1278c:	03013783          	ld	a5,48(sp)
   12790:	4007f793          	andi	a5,a5,1024
   12794:	00078663          	beqz	a5,127a0 <_vfprintf_r+0x1fd8>
   12798:	01813783          	ld	a5,24(sp)
   1279c:	4af04e63          	bgtz	a5,12c58 <_vfprintf_r+0x2490>
   127a0:	fffa4993          	not	s3,s4
   127a4:	43f9d993          	srai	s3,s3,0x3f
   127a8:	013a79b3          	and	s3,s4,s3
   127ac:	0009899b          	sext.w	s3,s3
   127b0:	06700a93          	li	s5,103
   127b4:	02013823          	sd	zero,48(sp)
   127b8:	02013423          	sd	zero,40(sp)
   127bc:	f28fe06f          	j	10ee4 <_vfprintf_r+0x71c>
   127c0:	0df14783          	lbu	a5,223(sp)
   127c4:	00000d93          	li	s11,0
   127c8:	00078463          	beqz	a5,127d0 <_vfprintf_r+0x2008>
   127cc:	8b5fe06f          	j	11080 <_vfprintf_r+0x8b8>
   127d0:	a50fe06f          	j	10a20 <_vfprintf_r+0x258>
   127d4:	000d0b93          	mv	s7,s10
   127d8:	f2dfe06f          	j	11704 <_vfprintf_r+0xf3c>
   127dc:	02913823          	sd	s1,48(sp)
   127e0:	00013823          	sd	zero,16(sp)
   127e4:	00098493          	mv	s1,s3
   127e8:	fff00793          	li	a5,-1
   127ec:	03f79793          	slli	a5,a5,0x3f
   127f0:	00fa4a33          	xor	s4,s4,a5
   127f4:	02d00793          	li	a5,45
   127f8:	06f13423          	sd	a5,104(sp)
   127fc:	d2dff06f          	j	12528 <_vfprintf_r+0x1d60>
   12800:	11010613          	addi	a2,sp,272
   12804:	000d0593          	mv	a1,s10
   12808:	000c0513          	mv	a0,s8
   1280c:	4ad080ef          	jal	ra,1b4b8 <__sprint_r>
   12810:	fc0512e3          	bnez	a0,127d4 <_vfprintf_r+0x200c>
   12814:	00044603          	lbu	a2,0(s0)
   12818:	12013783          	ld	a5,288(sp)
   1281c:	19010313          	addi	t1,sp,400
   12820:	00ca8ab3          	add	s5,s5,a2
   12824:	a99ff06f          	j	122bc <_vfprintf_r+0x1af4>
   12828:	02d00793          	li	a5,45
   1282c:	0cf10fa3          	sb	a5,223(sp)
   12830:	86dff06f          	j	1209c <_vfprintf_r+0x18d4>
   12834:	0e810793          	addi	a5,sp,232
   12838:	000d8713          	mv	a4,s11
   1283c:	0f810893          	addi	a7,sp,248
   12840:	0ec10813          	addi	a6,sp,236
   12844:	00200693          	li	a3,2
   12848:	000b0593          	mv	a1,s6
   1284c:	000a0613          	mv	a2,s4
   12850:	000c0513          	mv	a0,s8
   12854:	65d020ef          	jal	ra,156b0 <_ldtoa_r>
   12858:	02813703          	ld	a4,40(sp)
   1285c:	04700793          	li	a5,71
   12860:	01813303          	ld	t1,24(sp)
   12864:	00050d13          	mv	s10,a0
   12868:	06f71c63          	bne	a4,a5,128e0 <_vfprintf_r+0x2118>
   1286c:	03013783          	ld	a5,48(sp)
   12870:	0017f793          	andi	a5,a5,1
   12874:	28079a63          	bnez	a5,12b08 <_vfprintf_r+0x2340>
   12878:	04700793          	li	a5,71
   1287c:	0f813683          	ld	a3,248(sp)
   12880:	02f13423          	sd	a5,40(sp)
   12884:	d08fe06f          	j	10d8c <_vfprintf_r+0x5c4>
   12888:	11010613          	addi	a2,sp,272
   1288c:	000b8593          	mv	a1,s7
   12890:	000c0513          	mv	a0,s8
   12894:	425080ef          	jal	ra,1b4b8 <__sprint_r>
   12898:	00050463          	beqz	a0,128a0 <_vfprintf_r+0x20d8>
   1289c:	e69fe06f          	j	11704 <_vfprintf_r+0xf3c>
   128a0:	0e812703          	lw	a4,232(sp)
   128a4:	12013783          	ld	a5,288(sp)
   128a8:	19010313          	addi	t1,sp,400
   128ac:	a4cff06f          	j	11af8 <_vfprintf_r+0x1330>
   128b0:	0f810893          	addi	a7,sp,248
   128b4:	0ec10813          	addi	a6,sp,236
   128b8:	0e810793          	addi	a5,sp,232
   128bc:	000d8713          	mv	a4,s11
   128c0:	00300693          	li	a3,3
   128c4:	000b0593          	mv	a1,s6
   128c8:	000a0613          	mv	a2,s4
   128cc:	000c0513          	mv	a0,s8
   128d0:	00613c23          	sd	t1,24(sp)
   128d4:	5dd020ef          	jal	ra,156b0 <_ldtoa_r>
   128d8:	01813303          	ld	t1,24(sp)
   128dc:	00050d13          	mv	s10,a0
   128e0:	02813703          	ld	a4,40(sp)
   128e4:	04600793          	li	a5,70
   128e8:	01bd09b3          	add	s3,s10,s11
   128ec:	00f70463          	beq	a4,a5,128f4 <_vfprintf_r+0x212c>
   128f0:	c58fe06f          	j	10d48 <_vfprintf_r+0x580>
   128f4:	000d4703          	lbu	a4,0(s10)
   128f8:	03000793          	li	a5,48
   128fc:	00f70863          	beq	a4,a5,1290c <_vfprintf_r+0x2144>
   12900:	0e812703          	lw	a4,232(sp)
   12904:	00e989b3          	add	s3,s3,a4
   12908:	c40fe06f          	j	10d48 <_vfprintf_r+0x580>
   1290c:	00000613          	li	a2,0
   12910:	00000693          	li	a3,0
   12914:	000b0513          	mv	a0,s6
   12918:	000a0593          	mv	a1,s4
   1291c:	00613c23          	sd	t1,24(sp)
   12920:	1400d0ef          	jal	ra,1fa60 <__eqtf2>
   12924:	01813303          	ld	t1,24(sp)
   12928:	fc050ce3          	beqz	a0,12900 <_vfprintf_r+0x2138>
   1292c:	00100793          	li	a5,1
   12930:	41b7873b          	subw	a4,a5,s11
   12934:	0ee12423          	sw	a4,232(sp)
   12938:	00e989b3          	add	s3,s3,a4
   1293c:	c0cfe06f          	j	10d48 <_vfprintf_r+0x580>
   12940:	0df14783          	lbu	a5,223(sp)
   12944:	01913423          	sd	s9,8(sp)
   12948:	02013823          	sd	zero,48(sp)
   1294c:	02013423          	sd	zero,40(sp)
   12950:	00013c23          	sd	zero,24(sp)
   12954:	000d8993          	mv	s3,s11
   12958:	000d8a13          	mv	s4,s11
   1295c:	00000d93          	li	s11,0
   12960:	00078463          	beqz	a5,12968 <_vfprintf_r+0x21a0>
   12964:	f1cfe06f          	j	11080 <_vfprintf_r+0x8b8>
   12968:	8b8fe06f          	j	10a20 <_vfprintf_r+0x258>
   1296c:	03013783          	ld	a5,48(sp)
   12970:	01813703          	ld	a4,24(sp)
   12974:	0017f793          	andi	a5,a5,1
   12978:	00fde7b3          	or	a5,s11,a5
   1297c:	40e05863          	blez	a4,12d8c <_vfprintf_r+0x25c4>
   12980:	2c079263          	bnez	a5,12c44 <_vfprintf_r+0x247c>
   12984:	01813a03          	ld	s4,24(sp)
   12988:	06600a93          	li	s5,102
   1298c:	03013783          	ld	a5,48(sp)
   12990:	4007f793          	andi	a5,a5,1024
   12994:	2c079463          	bnez	a5,12c5c <_vfprintf_r+0x2494>
   12998:	fffa4993          	not	s3,s4
   1299c:	43f9d993          	srai	s3,s3,0x3f
   129a0:	013a79b3          	and	s3,s4,s3
   129a4:	0009899b          	sext.w	s3,s3
   129a8:	e0dff06f          	j	127b4 <_vfprintf_r+0x1fec>
   129ac:	00021837          	lui	a6,0x21
   129b0:	f6080d13          	addi	s10,a6,-160 # 20f60 <key+0x60>
   129b4:	ef8ff06f          	j	120ac <_vfprintf_r+0x18e4>
   129b8:	02013703          	ld	a4,32(sp)
   129bc:	03813783          	ld	a5,56(sp)
   129c0:	06700a93          	li	s5,103
   129c4:	00e78a3b          	addw	s4,a5,a4
   129c8:	01813703          	ld	a4,24(sp)
   129cc:	fce040e3          	bgtz	a4,1298c <_vfprintf_r+0x21c4>
   129d0:	40ea07bb          	subw	a5,s4,a4
   129d4:	0017879b          	addiw	a5,a5,1
   129d8:	00078a1b          	sext.w	s4,a5
   129dc:	fffa4993          	not	s3,s4
   129e0:	43f9d993          	srai	s3,s3,0x3f
   129e4:	0137f7b3          	and	a5,a5,s3
   129e8:	0007899b          	sext.w	s3,a5
   129ec:	dc9ff06f          	j	127b4 <_vfprintf_r+0x1fec>
   129f0:	11010613          	addi	a2,sp,272
   129f4:	000b8593          	mv	a1,s7
   129f8:	000c0513          	mv	a0,s8
   129fc:	2bd080ef          	jal	ra,1b4b8 <__sprint_r>
   12a00:	00050463          	beqz	a0,12a08 <_vfprintf_r+0x2240>
   12a04:	d01fe06f          	j	11704 <_vfprintf_r+0xf3c>
   12a08:	0e812603          	lw	a2,232(sp)
   12a0c:	02013703          	ld	a4,32(sp)
   12a10:	12013783          	ld	a5,288(sp)
   12a14:	19010313          	addi	t1,sp,400
   12a18:	40c7063b          	subw	a2,a4,a2
   12a1c:	928ff06f          	j	11b44 <_vfprintf_r+0x137c>
   12a20:	000218b7          	lui	a7,0x21
   12a24:	ff000713          	li	a4,-16
   12a28:	40c00b3b          	negw	s6,a2
   12a2c:	13088c93          	addi	s9,a7,304 # 21130 <zeroes.4519>
   12a30:	01000a13          	li	s4,16
   12a34:	00700a93          	li	s5,7
   12a38:	00e64863          	blt	a2,a4,12a48 <_vfprintf_r+0x2280>
   12a3c:	0840006f          	j	12ac0 <_vfprintf_r+0x22f8>
   12a40:	ff0b0b1b          	addiw	s6,s6,-16
   12a44:	076a5e63          	bge	s4,s6,12ac0 <_vfprintf_r+0x22f8>
   12a48:	0016869b          	addiw	a3,a3,1
   12a4c:	01078793          	addi	a5,a5,16
   12a50:	01933023          	sd	s9,0(t1)
   12a54:	01433423          	sd	s4,8(t1)
   12a58:	12f13023          	sd	a5,288(sp)
   12a5c:	10d12c23          	sw	a3,280(sp)
   12a60:	01030313          	addi	t1,t1,16
   12a64:	fcdadee3          	bge	s5,a3,12a40 <_vfprintf_r+0x2278>
   12a68:	11010613          	addi	a2,sp,272
   12a6c:	000b8593          	mv	a1,s7
   12a70:	000c0513          	mv	a0,s8
   12a74:	245080ef          	jal	ra,1b4b8 <__sprint_r>
   12a78:	00050463          	beqz	a0,12a80 <_vfprintf_r+0x22b8>
   12a7c:	c89fe06f          	j	11704 <_vfprintf_r+0xf3c>
   12a80:	12013783          	ld	a5,288(sp)
   12a84:	11812683          	lw	a3,280(sp)
   12a88:	19010313          	addi	t1,sp,400
   12a8c:	fb5ff06f          	j	12a40 <_vfprintf_r+0x2278>
   12a90:	fff00793          	li	a5,-1
   12a94:	00f13023          	sd	a5,0(sp)
   12a98:	8d4fe06f          	j	10b6c <_vfprintf_r+0x3a4>
   12a9c:	001d859b          	addiw	a1,s11,1
   12aa0:	000c0513          	mv	a0,s8
   12aa4:	00613823          	sd	t1,16(sp)
   12aa8:	1a0040ef          	jal	ra,16c48 <_malloc_r>
   12aac:	01013303          	ld	t1,16(sp)
   12ab0:	00050d13          	mv	s10,a0
   12ab4:	36050263          	beqz	a0,12e18 <_vfprintf_r+0x2650>
   12ab8:	00a13823          	sd	a0,16(sp)
   12abc:	a4dff06f          	j	12508 <_vfprintf_r+0x1d40>
   12ac0:	0016869b          	addiw	a3,a3,1
   12ac4:	016787b3          	add	a5,a5,s6
   12ac8:	01933023          	sd	s9,0(t1)
   12acc:	01633423          	sd	s6,8(t1)
   12ad0:	12f13023          	sd	a5,288(sp)
   12ad4:	10d12c23          	sw	a3,280(sp)
   12ad8:	00700713          	li	a4,7
   12adc:	d2d75e63          	bge	a4,a3,12018 <_vfprintf_r+0x1850>
   12ae0:	11010613          	addi	a2,sp,272
   12ae4:	000b8593          	mv	a1,s7
   12ae8:	000c0513          	mv	a0,s8
   12aec:	1cd080ef          	jal	ra,1b4b8 <__sprint_r>
   12af0:	00050463          	beqz	a0,12af8 <_vfprintf_r+0x2330>
   12af4:	c11fe06f          	j	11704 <_vfprintf_r+0xf3c>
   12af8:	12013783          	ld	a5,288(sp)
   12afc:	11812683          	lw	a3,280(sp)
   12b00:	19010313          	addi	t1,sp,400
   12b04:	c80fe06f          	j	10f84 <_vfprintf_r+0x7bc>
   12b08:	04700793          	li	a5,71
   12b0c:	01bd09b3          	add	s3,s10,s11
   12b10:	02f13423          	sd	a5,40(sp)
   12b14:	a34fe06f          	j	10d48 <_vfprintf_r+0x580>
   12b18:	01813783          	ld	a5,24(sp)
   12b1c:	0f413c23          	sd	s4,248(sp)
   12b20:	fffcc683          	lbu	a3,-1(s9)
   12b24:	00f7c603          	lbu	a2,15(a5)
   12b28:	000c8713          	mv	a4,s9
   12b2c:	02d61063          	bne	a2,a3,12b4c <_vfprintf_r+0x2384>
   12b30:	03000593          	li	a1,48
   12b34:	feb70fa3          	sb	a1,-1(a4)
   12b38:	0f813703          	ld	a4,248(sp)
   12b3c:	fff70793          	addi	a5,a4,-1
   12b40:	0ef13c23          	sd	a5,248(sp)
   12b44:	fff74683          	lbu	a3,-1(a4)
   12b48:	fed606e3          	beq	a2,a3,12b34 <_vfprintf_r+0x236c>
   12b4c:	0016861b          	addiw	a2,a3,1
   12b50:	03900593          	li	a1,57
   12b54:	0ff67613          	andi	a2,a2,255
   12b58:	00b68663          	beq	a3,a1,12b64 <_vfprintf_r+0x239c>
   12b5c:	fec70fa3          	sb	a2,-1(a4)
   12b60:	badff06f          	j	1270c <_vfprintf_r+0x1f44>
   12b64:	01813783          	ld	a5,24(sp)
   12b68:	00a7c603          	lbu	a2,10(a5)
   12b6c:	fec70fa3          	sb	a2,-1(a4)
   12b70:	b9dff06f          	j	1270c <_vfprintf_r+0x1f44>
   12b74:	00048b13          	mv	s6,s1
   12b78:	de1fe06f          	j	11958 <_vfprintf_r+0x1190>
   12b7c:	03000793          	li	a5,48
   12b80:	0ef10023          	sb	a5,224(sp)
   12b84:	07800713          	li	a4,120
   12b88:	961ff06f          	j	124e8 <_vfprintf_r+0x1d20>
   12b8c:	00f72023          	sw	a5,0(a4)
   12b90:	00040d13          	mv	s10,s0
   12b94:	fb5fd06f          	j	10b48 <_vfprintf_r+0x380>
   12b98:	000d9463          	bnez	s11,12ba0 <_vfprintf_r+0x23d8>
   12b9c:	00100d93          	li	s11,1
   12ba0:	10813a03          	ld	s4,264(sp)
   12ba4:	1004e993          	ori	s3,s1,256
   12ba8:	10013b03          	ld	s6,256(sp)
   12bac:	0009899b          	sext.w	s3,s3
   12bb0:	c20a46e3          	bltz	s4,127dc <_vfprintf_r+0x2014>
   12bb4:	0f810893          	addi	a7,sp,248
   12bb8:	0ec10813          	addi	a6,sp,236
   12bbc:	0e810793          	addi	a5,sp,232
   12bc0:	000d8713          	mv	a4,s11
   12bc4:	00200693          	li	a3,2
   12bc8:	000b0593          	mv	a1,s6
   12bcc:	000a0613          	mv	a2,s4
   12bd0:	000c0513          	mv	a0,s8
   12bd4:	00613c23          	sd	t1,24(sp)
   12bd8:	2d9020ef          	jal	ra,156b0 <_ldtoa_r>
   12bdc:	01813303          	ld	t1,24(sp)
   12be0:	02913823          	sd	s1,48(sp)
   12be4:	00050d13          	mv	s10,a0
   12be8:	00098493          	mv	s1,s3
   12bec:	00013823          	sd	zero,16(sp)
   12bf0:	06013423          	sd	zero,104(sp)
   12bf4:	c79ff06f          	j	1286c <_vfprintf_r+0x20a4>
   12bf8:	00600d93          	li	s11,6
   12bfc:	8ccfe06f          	j	10cc8 <_vfprintf_r+0x500>
   12c00:	03313023          	sd	s3,32(sp)
   12c04:	000c8893          	mv	a7,s9
   12c08:	000c0993          	mv	s3,s8
   12c0c:	000a8c93          	mv	s9,s5
   12c10:	000d0b13          	mv	s6,s10
   12c14:	07013403          	ld	s0,112(sp)
   12c18:	0a013483          	ld	s1,160(sp)
   12c1c:	0a813903          	ld	s2,168(sp)
   12c20:	0b013303          	ld	t1,176(sp)
   12c24:	0b813c03          	ld	s8,184(sp)
   12c28:	0c013b83          	ld	s7,192(sp)
   12c2c:	09813a83          	ld	s5,152(sp)
   12c30:	0c813d03          	ld	s10,200(sp)
   12c34:	a6dff06f          	j	126a0 <_vfprintf_r+0x1ed8>
   12c38:	00013823          	sd	zero,16(sp)
   12c3c:	00078493          	mv	s1,a5
   12c40:	ba9ff06f          	j	127e8 <_vfprintf_r+0x2020>
   12c44:	03813783          	ld	a5,56(sp)
   12c48:	06600a93          	li	s5,102
   12c4c:	00e78a3b          	addw	s4,a5,a4
   12c50:	01ba0a3b          	addw	s4,s4,s11
   12c54:	d39ff06f          	j	1298c <_vfprintf_r+0x21c4>
   12c58:	06700a93          	li	s5,103
   12c5c:	06013603          	ld	a2,96(sp)
   12c60:	0ff00713          	li	a4,255
   12c64:	00064783          	lbu	a5,0(a2)
   12c68:	18e78c63          	beq	a5,a4,12e00 <_vfprintf_r+0x2638>
   12c6c:	01813703          	ld	a4,24(sp)
   12c70:	00000813          	li	a6,0
   12c74:	00000513          	li	a0,0
   12c78:	0ff00693          	li	a3,255
   12c7c:	0007859b          	sext.w	a1,a5
   12c80:	00e7de63          	bge	a5,a4,12c9c <_vfprintf_r+0x24d4>
   12c84:	00164783          	lbu	a5,1(a2)
   12c88:	40b7073b          	subw	a4,a4,a1
   12c8c:	04078863          	beqz	a5,12cdc <_vfprintf_r+0x2514>
   12c90:	0015051b          	addiw	a0,a0,1
   12c94:	00160613          	addi	a2,a2,1
   12c98:	fed792e3          	bne	a5,a3,12c7c <_vfprintf_r+0x24b4>
   12c9c:	06c13023          	sd	a2,96(sp)
   12ca0:	00e13c23          	sd	a4,24(sp)
   12ca4:	02a13423          	sd	a0,40(sp)
   12ca8:	03013823          	sd	a6,48(sp)
   12cac:	02813703          	ld	a4,40(sp)
   12cb0:	03013783          	ld	a5,48(sp)
   12cb4:	00e787bb          	addw	a5,a5,a4
   12cb8:	07813703          	ld	a4,120(sp)
   12cbc:	02e787bb          	mulw	a5,a5,a4
   12cc0:	014787bb          	addw	a5,a5,s4
   12cc4:	00078a1b          	sext.w	s4,a5
   12cc8:	fffa4993          	not	s3,s4
   12ccc:	43f9d993          	srai	s3,s3,0x3f
   12cd0:	0137f7b3          	and	a5,a5,s3
   12cd4:	0007899b          	sext.w	s3,a5
   12cd8:	a0cfe06f          	j	10ee4 <_vfprintf_r+0x71c>
   12cdc:	00064783          	lbu	a5,0(a2)
   12ce0:	0018081b          	addiw	a6,a6,1
   12ce4:	fb5ff06f          	j	12c98 <_vfprintf_r+0x24d0>
   12ce8:	0f210713          	addi	a4,sp,242
   12cec:	00069863          	bnez	a3,12cfc <_vfprintf_r+0x2534>
   12cf0:	03000713          	li	a4,48
   12cf4:	0ee10923          	sb	a4,242(sp)
   12cf8:	0f310713          	addi	a4,sp,243
   12cfc:	21010693          	addi	a3,sp,528
   12d00:	0307879b          	addiw	a5,a5,48
   12d04:	40d706b3          	sub	a3,a4,a3
   12d08:	00f70023          	sb	a5,0(a4)
   12d0c:	1216879b          	addiw	a5,a3,289
   12d10:	04f13823          	sd	a5,80(sp)
   12d14:	980fe06f          	j	10e94 <_vfprintf_r+0x6cc>
   12d18:	000a0593          	mv	a1,s4
   12d1c:	000b0513          	mv	a0,s6
   12d20:	02613023          	sd	t1,32(sp)
   12d24:	7c90d0ef          	jal	ra,20cec <__trunctfdf2>
   12d28:	0e810593          	addi	a1,sp,232
   12d2c:	225050ef          	jal	ra,18750 <frexp>
   12d30:	6cd0d0ef          	jal	ra,20bfc <__extenddftf2>
   12d34:	09013683          	ld	a3,144(sp)
   12d38:	00000613          	li	a2,0
   12d3c:	7710c0ef          	jal	ra,1fcac <__multf3>
   12d40:	00000613          	li	a2,0
   12d44:	00000693          	li	a3,0
   12d48:	00050a13          	mv	s4,a0
   12d4c:	00b13c23          	sd	a1,24(sp)
   12d50:	5110c0ef          	jal	ra,1fa60 <__eqtf2>
   12d54:	01813f03          	ld	t5,24(sp)
   12d58:	02013303          	ld	t1,32(sp)
   12d5c:	00051663          	bnez	a0,12d68 <_vfprintf_r+0x25a0>
   12d60:	00100793          	li	a5,1
   12d64:	0ef12423          	sw	a5,232(sp)
   12d68:	000217b7          	lui	a5,0x21
   12d6c:	f8878793          	addi	a5,a5,-120 # 20f88 <key+0x88>
   12d70:	00f13c23          	sd	a5,24(sp)
   12d74:	829ff06f          	j	1259c <_vfprintf_r+0x1dd4>
   12d78:	03013703          	ld	a4,48(sp)
   12d7c:	00177713          	andi	a4,a4,1
   12d80:	00071463          	bnez	a4,12d88 <_vfprintf_r+0x25c0>
   12d84:	934fe06f          	j	10eb8 <_vfprintf_r+0x6f0>
   12d88:	928fe06f          	j	10eb0 <_vfprintf_r+0x6e8>
   12d8c:	00079a63          	bnez	a5,12da0 <_vfprintf_r+0x25d8>
   12d90:	00100993          	li	s3,1
   12d94:	06600a93          	li	s5,102
   12d98:	00100a13          	li	s4,1
   12d9c:	a19ff06f          	j	127b4 <_vfprintf_r+0x1fec>
   12da0:	03813783          	ld	a5,56(sp)
   12da4:	06600a93          	li	s5,102
   12da8:	0017879b          	addiw	a5,a5,1
   12dac:	01b78e3b          	addw	t3,a5,s11
   12db0:	000e0a1b          	sext.w	s4,t3
   12db4:	fffa4993          	not	s3,s4
   12db8:	43f9d993          	srai	s3,s3,0x3f
   12dbc:	013e7e33          	and	t3,t3,s3
   12dc0:	000e099b          	sext.w	s3,t3
   12dc4:	9f1ff06f          	j	127b4 <_vfprintf_r+0x1fec>
   12dc8:	000218b7          	lui	a7,0x21
   12dcc:	00030613          	mv	a2,t1
   12dd0:	13088c93          	addi	s9,a7,304 # 21130 <zeroes.4519>
   12dd4:	fc5fe06f          	j	11d98 <_vfprintf_r+0x15d0>
   12dd8:	00813683          	ld	a3,8(sp)
   12ddc:	0006a703          	lw	a4,0(a3)
   12de0:	00868693          	addi	a3,a3,8
   12de4:	00070d9b          	sext.w	s11,a4
   12de8:	00075463          	bgez	a4,12df0 <_vfprintf_r+0x2628>
   12dec:	fff00d93          	li	s11,-1
   12df0:	00144e83          	lbu	t4,1(s0)
   12df4:	00d13423          	sd	a3,8(sp)
   12df8:	00078413          	mv	s0,a5
   12dfc:	b91fd06f          	j	1098c <_vfprintf_r+0x1c4>
   12e00:	02013823          	sd	zero,48(sp)
   12e04:	02013423          	sd	zero,40(sp)
   12e08:	ea5ff06f          	j	12cac <_vfprintf_r+0x24e4>
   12e0c:	00200793          	li	a5,2
   12e10:	04f13823          	sd	a5,80(sp)
   12e14:	880fe06f          	j	10e94 <_vfprintf_r+0x6cc>
   12e18:	010bd783          	lhu	a5,16(s7)
   12e1c:	0407e793          	ori	a5,a5,64
   12e20:	00fb9823          	sh	a5,16(s7)
   12e24:	d39fd06f          	j	10b5c <_vfprintf_r+0x394>

0000000000012e28 <vfprintf>:
   12e28:	00050793          	mv	a5,a0
   12e2c:	6481b503          	ld	a0,1608(gp) # 23e20 <_impure_ptr>
   12e30:	00060693          	mv	a3,a2
   12e34:	00058613          	mv	a2,a1
   12e38:	00078593          	mv	a1,a5
   12e3c:	98dfd06f          	j	107c8 <_vfprintf_r>

0000000000012e40 <__sbprintf>:
   12e40:	0105d783          	lhu	a5,16(a1)
   12e44:	0ac5ae03          	lw	t3,172(a1)
   12e48:	0125d303          	lhu	t1,18(a1)
   12e4c:	0305b883          	ld	a7,48(a1)
   12e50:	0405b803          	ld	a6,64(a1)
   12e54:	b3010113          	addi	sp,sp,-1232
   12e58:	ffd7f793          	andi	a5,a5,-3
   12e5c:	40000713          	li	a4,1024
   12e60:	4c813023          	sd	s0,1216(sp)
   12e64:	00f11823          	sh	a5,16(sp)
   12e68:	00058413          	mv	s0,a1
   12e6c:	0b010793          	addi	a5,sp,176
   12e70:	00010593          	mv	a1,sp
   12e74:	4a913c23          	sd	s1,1208(sp)
   12e78:	4b213823          	sd	s2,1200(sp)
   12e7c:	4c113423          	sd	ra,1224(sp)
   12e80:	00050913          	mv	s2,a0
   12e84:	0bc12623          	sw	t3,172(sp)
   12e88:	00611923          	sh	t1,18(sp)
   12e8c:	03113823          	sd	a7,48(sp)
   12e90:	05013023          	sd	a6,64(sp)
   12e94:	00f13023          	sd	a5,0(sp)
   12e98:	00f13c23          	sd	a5,24(sp)
   12e9c:	00e12623          	sw	a4,12(sp)
   12ea0:	02e12023          	sw	a4,32(sp)
   12ea4:	02012423          	sw	zero,40(sp)
   12ea8:	921fd0ef          	jal	ra,107c8 <_vfprintf_r>
   12eac:	00050493          	mv	s1,a0
   12eb0:	02055c63          	bgez	a0,12ee8 <__sbprintf+0xa8>
   12eb4:	01015783          	lhu	a5,16(sp)
   12eb8:	0407f793          	andi	a5,a5,64
   12ebc:	00078863          	beqz	a5,12ecc <__sbprintf+0x8c>
   12ec0:	01045783          	lhu	a5,16(s0)
   12ec4:	0407e793          	ori	a5,a5,64
   12ec8:	00f41823          	sh	a5,16(s0)
   12ecc:	4c813083          	ld	ra,1224(sp)
   12ed0:	4c013403          	ld	s0,1216(sp)
   12ed4:	4b013903          	ld	s2,1200(sp)
   12ed8:	00048513          	mv	a0,s1
   12edc:	4b813483          	ld	s1,1208(sp)
   12ee0:	4d010113          	addi	sp,sp,1232
   12ee4:	00008067          	ret
   12ee8:	00010593          	mv	a1,sp
   12eec:	00090513          	mv	a0,s2
   12ef0:	4f0000ef          	jal	ra,133e0 <_fflush_r>
   12ef4:	fc0500e3          	beqz	a0,12eb4 <__sbprintf+0x74>
   12ef8:	fff00493          	li	s1,-1
   12efc:	fb9ff06f          	j	12eb4 <__sbprintf+0x74>

0000000000012f00 <__swsetup_r>:
   12f00:	6481b783          	ld	a5,1608(gp) # 23e20 <_impure_ptr>
   12f04:	fe010113          	addi	sp,sp,-32
   12f08:	00813823          	sd	s0,16(sp)
   12f0c:	00913423          	sd	s1,8(sp)
   12f10:	00113c23          	sd	ra,24(sp)
   12f14:	00050493          	mv	s1,a0
   12f18:	00058413          	mv	s0,a1
   12f1c:	00078663          	beqz	a5,12f28 <__swsetup_r+0x28>
   12f20:	0507a703          	lw	a4,80(a5)
   12f24:	0e070063          	beqz	a4,13004 <__swsetup_r+0x104>
   12f28:	01041703          	lh	a4,16(s0)
   12f2c:	03071793          	slli	a5,a4,0x30
   12f30:	00877693          	andi	a3,a4,8
   12f34:	0307d793          	srli	a5,a5,0x30
   12f38:	04068063          	beqz	a3,12f78 <__swsetup_r+0x78>
   12f3c:	01843683          	ld	a3,24(s0)
   12f40:	06068063          	beqz	a3,12fa0 <__swsetup_r+0xa0>
   12f44:	0017f613          	andi	a2,a5,1
   12f48:	08060463          	beqz	a2,12fd0 <__swsetup_r+0xd0>
   12f4c:	02042603          	lw	a2,32(s0)
   12f50:	00042623          	sw	zero,12(s0)
   12f54:	00000513          	li	a0,0
   12f58:	40c0063b          	negw	a2,a2
   12f5c:	02c42423          	sw	a2,40(s0)
   12f60:	08068663          	beqz	a3,12fec <__swsetup_r+0xec>
   12f64:	01813083          	ld	ra,24(sp)
   12f68:	01013403          	ld	s0,16(sp)
   12f6c:	00813483          	ld	s1,8(sp)
   12f70:	02010113          	addi	sp,sp,32
   12f74:	00008067          	ret
   12f78:	0107f693          	andi	a3,a5,16
   12f7c:	0c068463          	beqz	a3,13044 <__swsetup_r+0x144>
   12f80:	0047f793          	andi	a5,a5,4
   12f84:	08079663          	bnez	a5,13010 <__swsetup_r+0x110>
   12f88:	01843683          	ld	a3,24(s0)
   12f8c:	00876713          	ori	a4,a4,8
   12f90:	03071793          	slli	a5,a4,0x30
   12f94:	00e41823          	sh	a4,16(s0)
   12f98:	0307d793          	srli	a5,a5,0x30
   12f9c:	fa0694e3          	bnez	a3,12f44 <__swsetup_r+0x44>
   12fa0:	2807f613          	andi	a2,a5,640
   12fa4:	20000593          	li	a1,512
   12fa8:	f8b60ee3          	beq	a2,a1,12f44 <__swsetup_r+0x44>
   12fac:	00040593          	mv	a1,s0
   12fb0:	00048513          	mv	a0,s1
   12fb4:	375030ef          	jal	ra,16b28 <__smakebuf_r>
   12fb8:	01041703          	lh	a4,16(s0)
   12fbc:	01843683          	ld	a3,24(s0)
   12fc0:	03071793          	slli	a5,a4,0x30
   12fc4:	0307d793          	srli	a5,a5,0x30
   12fc8:	0017f613          	andi	a2,a5,1
   12fcc:	f80610e3          	bnez	a2,12f4c <__swsetup_r+0x4c>
   12fd0:	0027f613          	andi	a2,a5,2
   12fd4:	00000593          	li	a1,0
   12fd8:	00061463          	bnez	a2,12fe0 <__swsetup_r+0xe0>
   12fdc:	02042583          	lw	a1,32(s0)
   12fe0:	00b42623          	sw	a1,12(s0)
   12fe4:	00000513          	li	a0,0
   12fe8:	f6069ee3          	bnez	a3,12f64 <__swsetup_r+0x64>
   12fec:	0807f793          	andi	a5,a5,128
   12ff0:	f6078ae3          	beqz	a5,12f64 <__swsetup_r+0x64>
   12ff4:	04076713          	ori	a4,a4,64
   12ff8:	00e41823          	sh	a4,16(s0)
   12ffc:	fff00513          	li	a0,-1
   13000:	f65ff06f          	j	12f64 <__swsetup_r+0x64>
   13004:	00078513          	mv	a0,a5
   13008:	774000ef          	jal	ra,1377c <__sinit>
   1300c:	f1dff06f          	j	12f28 <__swsetup_r+0x28>
   13010:	05843583          	ld	a1,88(s0)
   13014:	00058e63          	beqz	a1,13030 <__swsetup_r+0x130>
   13018:	07440793          	addi	a5,s0,116
   1301c:	00f58863          	beq	a1,a5,1302c <__swsetup_r+0x12c>
   13020:	00048513          	mv	a0,s1
   13024:	129000ef          	jal	ra,1394c <_free_r>
   13028:	01041703          	lh	a4,16(s0)
   1302c:	04043c23          	sd	zero,88(s0)
   13030:	01843683          	ld	a3,24(s0)
   13034:	fdb77713          	andi	a4,a4,-37
   13038:	00042423          	sw	zero,8(s0)
   1303c:	00d43023          	sd	a3,0(s0)
   13040:	f4dff06f          	j	12f8c <__swsetup_r+0x8c>
   13044:	00900793          	li	a5,9
   13048:	00f4a023          	sw	a5,0(s1)
   1304c:	04076713          	ori	a4,a4,64
   13050:	00e41823          	sh	a4,16(s0)
   13054:	fff00513          	li	a0,-1
   13058:	f0dff06f          	j	12f64 <__swsetup_r+0x64>

000000000001305c <__call_exitprocs>:
   1305c:	fb010113          	addi	sp,sp,-80
   13060:	03413023          	sd	s4,32(sp)
   13064:	6381ba03          	ld	s4,1592(gp) # 23e10 <_global_impure_ptr>
   13068:	03213823          	sd	s2,48(sp)
   1306c:	04113423          	sd	ra,72(sp)
   13070:	1f8a3903          	ld	s2,504(s4)
   13074:	04813023          	sd	s0,64(sp)
   13078:	02913c23          	sd	s1,56(sp)
   1307c:	03313423          	sd	s3,40(sp)
   13080:	01513c23          	sd	s5,24(sp)
   13084:	01613823          	sd	s6,16(sp)
   13088:	01713423          	sd	s7,8(sp)
   1308c:	01813023          	sd	s8,0(sp)
   13090:	04090063          	beqz	s2,130d0 <__call_exitprocs+0x74>
   13094:	00050b13          	mv	s6,a0
   13098:	00058b93          	mv	s7,a1
   1309c:	00100a93          	li	s5,1
   130a0:	fff00993          	li	s3,-1
   130a4:	00892483          	lw	s1,8(s2)
   130a8:	fff4841b          	addiw	s0,s1,-1
   130ac:	02044263          	bltz	s0,130d0 <__call_exitprocs+0x74>
   130b0:	00349493          	slli	s1,s1,0x3
   130b4:	009904b3          	add	s1,s2,s1
   130b8:	040b8463          	beqz	s7,13100 <__call_exitprocs+0xa4>
   130bc:	2084b783          	ld	a5,520(s1)
   130c0:	05778063          	beq	a5,s7,13100 <__call_exitprocs+0xa4>
   130c4:	fff4041b          	addiw	s0,s0,-1
   130c8:	ff848493          	addi	s1,s1,-8
   130cc:	ff3416e3          	bne	s0,s3,130b8 <__call_exitprocs+0x5c>
   130d0:	04813083          	ld	ra,72(sp)
   130d4:	04013403          	ld	s0,64(sp)
   130d8:	03813483          	ld	s1,56(sp)
   130dc:	03013903          	ld	s2,48(sp)
   130e0:	02813983          	ld	s3,40(sp)
   130e4:	02013a03          	ld	s4,32(sp)
   130e8:	01813a83          	ld	s5,24(sp)
   130ec:	01013b03          	ld	s6,16(sp)
   130f0:	00813b83          	ld	s7,8(sp)
   130f4:	00013c03          	ld	s8,0(sp)
   130f8:	05010113          	addi	sp,sp,80
   130fc:	00008067          	ret
   13100:	00892783          	lw	a5,8(s2)
   13104:	0084b703          	ld	a4,8(s1)
   13108:	fff7879b          	addiw	a5,a5,-1
   1310c:	06878263          	beq	a5,s0,13170 <__call_exitprocs+0x114>
   13110:	0004b423          	sd	zero,8(s1)
   13114:	fa0708e3          	beqz	a4,130c4 <__call_exitprocs+0x68>
   13118:	31092783          	lw	a5,784(s2)
   1311c:	008a96bb          	sllw	a3,s5,s0
   13120:	00892c03          	lw	s8,8(s2)
   13124:	00d7f7b3          	and	a5,a5,a3
   13128:	0007879b          	sext.w	a5,a5
   1312c:	02079263          	bnez	a5,13150 <__call_exitprocs+0xf4>
   13130:	000700e7          	jalr	a4
   13134:	00892703          	lw	a4,8(s2)
   13138:	1f8a3783          	ld	a5,504(s4)
   1313c:	01871463          	bne	a4,s8,13144 <__call_exitprocs+0xe8>
   13140:	f8f902e3          	beq	s2,a5,130c4 <__call_exitprocs+0x68>
   13144:	f80786e3          	beqz	a5,130d0 <__call_exitprocs+0x74>
   13148:	00078913          	mv	s2,a5
   1314c:	f59ff06f          	j	130a4 <__call_exitprocs+0x48>
   13150:	31492783          	lw	a5,788(s2)
   13154:	1084b583          	ld	a1,264(s1)
   13158:	00d7f7b3          	and	a5,a5,a3
   1315c:	0007879b          	sext.w	a5,a5
   13160:	00079c63          	bnez	a5,13178 <__call_exitprocs+0x11c>
   13164:	000b0513          	mv	a0,s6
   13168:	000700e7          	jalr	a4
   1316c:	fc9ff06f          	j	13134 <__call_exitprocs+0xd8>
   13170:	00892423          	sw	s0,8(s2)
   13174:	fa1ff06f          	j	13114 <__call_exitprocs+0xb8>
   13178:	00058513          	mv	a0,a1
   1317c:	000700e7          	jalr	a4
   13180:	fb5ff06f          	j	13134 <__call_exitprocs+0xd8>

0000000000013184 <__sflush_r>:
   13184:	01059783          	lh	a5,16(a1)
   13188:	fd010113          	addi	sp,sp,-48
   1318c:	02813023          	sd	s0,32(sp)
   13190:	01313423          	sd	s3,8(sp)
   13194:	02113423          	sd	ra,40(sp)
   13198:	00913c23          	sd	s1,24(sp)
   1319c:	01213823          	sd	s2,16(sp)
   131a0:	0087f693          	andi	a3,a5,8
   131a4:	00058413          	mv	s0,a1
   131a8:	00050993          	mv	s3,a0
   131ac:	10069a63          	bnez	a3,132c0 <__sflush_r+0x13c>
   131b0:	00001737          	lui	a4,0x1
   131b4:	80070713          	addi	a4,a4,-2048 # 800 <main-0xf8b0>
   131b8:	0085a683          	lw	a3,8(a1)
   131bc:	00e7e7b3          	or	a5,a5,a4
   131c0:	00f59823          	sh	a5,16(a1)
   131c4:	18d05463          	blez	a3,1334c <__sflush_r+0x1c8>
   131c8:	04843703          	ld	a4,72(s0)
   131cc:	0c070a63          	beqz	a4,132a0 <__sflush_r+0x11c>
   131d0:	0009a483          	lw	s1,0(s3)
   131d4:	03079693          	slli	a3,a5,0x30
   131d8:	0009a023          	sw	zero,0(s3)
   131dc:	03379613          	slli	a2,a5,0x33
   131e0:	03043583          	ld	a1,48(s0)
   131e4:	0306d693          	srli	a3,a3,0x30
   131e8:	16064863          	bltz	a2,13358 <__sflush_r+0x1d4>
   131ec:	00000613          	li	a2,0
   131f0:	00100693          	li	a3,1
   131f4:	00098513          	mv	a0,s3
   131f8:	000700e7          	jalr	a4
   131fc:	fff00793          	li	a5,-1
   13200:	00050613          	mv	a2,a0
   13204:	18f50a63          	beq	a0,a5,13398 <__sflush_r+0x214>
   13208:	01045683          	lhu	a3,16(s0)
   1320c:	04843703          	ld	a4,72(s0)
   13210:	03043583          	ld	a1,48(s0)
   13214:	0046f693          	andi	a3,a3,4
   13218:	00068e63          	beqz	a3,13234 <__sflush_r+0xb0>
   1321c:	00842683          	lw	a3,8(s0)
   13220:	05843783          	ld	a5,88(s0)
   13224:	40d60633          	sub	a2,a2,a3
   13228:	00078663          	beqz	a5,13234 <__sflush_r+0xb0>
   1322c:	07042783          	lw	a5,112(s0)
   13230:	40f60633          	sub	a2,a2,a5
   13234:	00000693          	li	a3,0
   13238:	00098513          	mv	a0,s3
   1323c:	000700e7          	jalr	a4
   13240:	fff00793          	li	a5,-1
   13244:	10f51e63          	bne	a0,a5,13360 <__sflush_r+0x1dc>
   13248:	0009a703          	lw	a4,0(s3)
   1324c:	01041783          	lh	a5,16(s0)
   13250:	16070663          	beqz	a4,133bc <__sflush_r+0x238>
   13254:	01d00693          	li	a3,29
   13258:	00d70663          	beq	a4,a3,13264 <__sflush_r+0xe0>
   1325c:	01600693          	li	a3,22
   13260:	16d71863          	bne	a4,a3,133d0 <__sflush_r+0x24c>
   13264:	01843683          	ld	a3,24(s0)
   13268:	fffff737          	lui	a4,0xfffff
   1326c:	7ff70713          	addi	a4,a4,2047 # fffffffffffff7ff <__BSS_END__+0xfffffffffffdb827>
   13270:	00e7f7b3          	and	a5,a5,a4
   13274:	00f41823          	sh	a5,16(s0)
   13278:	00042423          	sw	zero,8(s0)
   1327c:	00d43023          	sd	a3,0(s0)
   13280:	05843583          	ld	a1,88(s0)
   13284:	0099a023          	sw	s1,0(s3)
   13288:	00058c63          	beqz	a1,132a0 <__sflush_r+0x11c>
   1328c:	07440793          	addi	a5,s0,116
   13290:	00f58663          	beq	a1,a5,1329c <__sflush_r+0x118>
   13294:	00098513          	mv	a0,s3
   13298:	6b4000ef          	jal	ra,1394c <_free_r>
   1329c:	04043c23          	sd	zero,88(s0)
   132a0:	00000513          	li	a0,0
   132a4:	02813083          	ld	ra,40(sp)
   132a8:	02013403          	ld	s0,32(sp)
   132ac:	01813483          	ld	s1,24(sp)
   132b0:	01013903          	ld	s2,16(sp)
   132b4:	00813983          	ld	s3,8(sp)
   132b8:	03010113          	addi	sp,sp,48
   132bc:	00008067          	ret
   132c0:	0185b903          	ld	s2,24(a1)
   132c4:	fc090ee3          	beqz	s2,132a0 <__sflush_r+0x11c>
   132c8:	0005b483          	ld	s1,0(a1)
   132cc:	03079713          	slli	a4,a5,0x30
   132d0:	03075713          	srli	a4,a4,0x30
   132d4:	00377713          	andi	a4,a4,3
   132d8:	0125b023          	sd	s2,0(a1)
   132dc:	412484bb          	subw	s1,s1,s2
   132e0:	00000793          	li	a5,0
   132e4:	00071463          	bnez	a4,132ec <__sflush_r+0x168>
   132e8:	0205a783          	lw	a5,32(a1)
   132ec:	00f42623          	sw	a5,12(s0)
   132f0:	00904863          	bgtz	s1,13300 <__sflush_r+0x17c>
   132f4:	fadff06f          	j	132a0 <__sflush_r+0x11c>
   132f8:	00a90933          	add	s2,s2,a0
   132fc:	fa9052e3          	blez	s1,132a0 <__sflush_r+0x11c>
   13300:	04043783          	ld	a5,64(s0)
   13304:	03043583          	ld	a1,48(s0)
   13308:	00048693          	mv	a3,s1
   1330c:	00090613          	mv	a2,s2
   13310:	00098513          	mv	a0,s3
   13314:	000780e7          	jalr	a5
   13318:	40a484bb          	subw	s1,s1,a0
   1331c:	fca04ee3          	bgtz	a0,132f8 <__sflush_r+0x174>
   13320:	01045783          	lhu	a5,16(s0)
   13324:	02813083          	ld	ra,40(sp)
   13328:	01813483          	ld	s1,24(sp)
   1332c:	0407e793          	ori	a5,a5,64
   13330:	00f41823          	sh	a5,16(s0)
   13334:	02013403          	ld	s0,32(sp)
   13338:	01013903          	ld	s2,16(sp)
   1333c:	00813983          	ld	s3,8(sp)
   13340:	fff00513          	li	a0,-1
   13344:	03010113          	addi	sp,sp,48
   13348:	00008067          	ret
   1334c:	0705a703          	lw	a4,112(a1)
   13350:	e6e04ce3          	bgtz	a4,131c8 <__sflush_r+0x44>
   13354:	f4dff06f          	j	132a0 <__sflush_r+0x11c>
   13358:	09043603          	ld	a2,144(s0)
   1335c:	eb9ff06f          	j	13214 <__sflush_r+0x90>
   13360:	01045783          	lhu	a5,16(s0)
   13364:	fffff737          	lui	a4,0xfffff
   13368:	7ff70713          	addi	a4,a4,2047 # fffffffffffff7ff <__BSS_END__+0xfffffffffffdb827>
   1336c:	00e7f7b3          	and	a5,a5,a4
   13370:	01843683          	ld	a3,24(s0)
   13374:	0107979b          	slliw	a5,a5,0x10
   13378:	4107d79b          	sraiw	a5,a5,0x10
   1337c:	00f41823          	sh	a5,16(s0)
   13380:	00042423          	sw	zero,8(s0)
   13384:	00d43023          	sd	a3,0(s0)
   13388:	03379713          	slli	a4,a5,0x33
   1338c:	ee075ae3          	bgez	a4,13280 <__sflush_r+0xfc>
   13390:	08a43823          	sd	a0,144(s0)
   13394:	eedff06f          	j	13280 <__sflush_r+0xfc>
   13398:	0009a783          	lw	a5,0(s3)
   1339c:	e60786e3          	beqz	a5,13208 <__sflush_r+0x84>
   133a0:	01d00713          	li	a4,29
   133a4:	00e78663          	beq	a5,a4,133b0 <__sflush_r+0x22c>
   133a8:	01600713          	li	a4,22
   133ac:	f6e79ae3          	bne	a5,a4,13320 <__sflush_r+0x19c>
   133b0:	0099a023          	sw	s1,0(s3)
   133b4:	00000513          	li	a0,0
   133b8:	eedff06f          	j	132a4 <__sflush_r+0x120>
   133bc:	fffff737          	lui	a4,0xfffff
   133c0:	7ff70713          	addi	a4,a4,2047 # fffffffffffff7ff <__BSS_END__+0xfffffffffffdb827>
   133c4:	01843683          	ld	a3,24(s0)
   133c8:	00e7f7b3          	and	a5,a5,a4
   133cc:	fb1ff06f          	j	1337c <__sflush_r+0x1f8>
   133d0:	0407e793          	ori	a5,a5,64
   133d4:	00f41823          	sh	a5,16(s0)
   133d8:	fff00513          	li	a0,-1
   133dc:	ec9ff06f          	j	132a4 <__sflush_r+0x120>

00000000000133e0 <_fflush_r>:
   133e0:	fe010113          	addi	sp,sp,-32
   133e4:	00813823          	sd	s0,16(sp)
   133e8:	00113c23          	sd	ra,24(sp)
   133ec:	00050413          	mv	s0,a0
   133f0:	00050663          	beqz	a0,133fc <_fflush_r+0x1c>
   133f4:	05052783          	lw	a5,80(a0)
   133f8:	02078063          	beqz	a5,13418 <_fflush_r+0x38>
   133fc:	01059783          	lh	a5,16(a1)
   13400:	02079663          	bnez	a5,1342c <_fflush_r+0x4c>
   13404:	01813083          	ld	ra,24(sp)
   13408:	01013403          	ld	s0,16(sp)
   1340c:	00000513          	li	a0,0
   13410:	02010113          	addi	sp,sp,32
   13414:	00008067          	ret
   13418:	00b13423          	sd	a1,8(sp)
   1341c:	360000ef          	jal	ra,1377c <__sinit>
   13420:	00813583          	ld	a1,8(sp)
   13424:	01059783          	lh	a5,16(a1)
   13428:	fc078ee3          	beqz	a5,13404 <_fflush_r+0x24>
   1342c:	00040513          	mv	a0,s0
   13430:	01013403          	ld	s0,16(sp)
   13434:	01813083          	ld	ra,24(sp)
   13438:	02010113          	addi	sp,sp,32
   1343c:	d49ff06f          	j	13184 <__sflush_r>

0000000000013440 <fflush>:
   13440:	00050593          	mv	a1,a0
   13444:	00050663          	beqz	a0,13450 <fflush+0x10>
   13448:	6481b503          	ld	a0,1608(gp) # 23e20 <_impure_ptr>
   1344c:	f95ff06f          	j	133e0 <_fflush_r>
   13450:	6381b503          	ld	a0,1592(gp) # 23e10 <_global_impure_ptr>
   13454:	000135b7          	lui	a1,0x13
   13458:	3e058593          	addi	a1,a1,992 # 133e0 <_fflush_r>
   1345c:	0dd0006f          	j	13d38 <_fwalk_reent>

0000000000013460 <__fp_lock>:
   13460:	00000513          	li	a0,0
   13464:	00008067          	ret

0000000000013468 <_cleanup_r>:
   13468:	0001d5b7          	lui	a1,0x1d
   1346c:	95458593          	addi	a1,a1,-1708 # 1c954 <_fclose_r>
   13470:	0c90006f          	j	13d38 <_fwalk_reent>

0000000000013474 <__sinit.part.0>:
   13474:	fc010113          	addi	sp,sp,-64
   13478:	000137b7          	lui	a5,0x13
   1347c:	02113c23          	sd	ra,56(sp)
   13480:	02813823          	sd	s0,48(sp)
   13484:	02913423          	sd	s1,40(sp)
   13488:	03213023          	sd	s2,32(sp)
   1348c:	01313c23          	sd	s3,24(sp)
   13490:	01413823          	sd	s4,16(sp)
   13494:	01513423          	sd	s5,8(sp)
   13498:	01613023          	sd	s6,0(sp)
   1349c:	00853403          	ld	s0,8(a0)
   134a0:	46878793          	addi	a5,a5,1128 # 13468 <_cleanup_r>
   134a4:	04f53c23          	sd	a5,88(a0)
   134a8:	53850713          	addi	a4,a0,1336
   134ac:	00300793          	li	a5,3
   134b0:	52e53823          	sd	a4,1328(a0)
   134b4:	52f52423          	sw	a5,1320(a0)
   134b8:	52053023          	sd	zero,1312(a0)
   134bc:	00400793          	li	a5,4
   134c0:	00050913          	mv	s2,a0
   134c4:	00f42823          	sw	a5,16(s0)
   134c8:	00800613          	li	a2,8
   134cc:	00000593          	li	a1,0
   134d0:	0a042623          	sw	zero,172(s0)
   134d4:	00043023          	sd	zero,0(s0)
   134d8:	00043423          	sd	zero,8(s0)
   134dc:	00043c23          	sd	zero,24(s0)
   134e0:	02042023          	sw	zero,32(s0)
   134e4:	02042423          	sw	zero,40(s0)
   134e8:	0a440513          	addi	a0,s0,164
   134ec:	974fd0ef          	jal	ra,10660 <memset>
   134f0:	00019b37          	lui	s6,0x19
   134f4:	01093483          	ld	s1,16(s2)
   134f8:	00019ab7          	lui	s5,0x19
   134fc:	00019a37          	lui	s4,0x19
   13500:	000199b7          	lui	s3,0x19
   13504:	8f0b0b13          	addi	s6,s6,-1808 # 188f0 <__sread>
   13508:	954a8a93          	addi	s5,s5,-1708 # 18954 <__swrite>
   1350c:	9dca0a13          	addi	s4,s4,-1572 # 189dc <__sseek>
   13510:	a4498993          	addi	s3,s3,-1468 # 18a44 <__sclose>
   13514:	000107b7          	lui	a5,0x10
   13518:	03643c23          	sd	s6,56(s0)
   1351c:	05543023          	sd	s5,64(s0)
   13520:	05443423          	sd	s4,72(s0)
   13524:	05343823          	sd	s3,80(s0)
   13528:	02843823          	sd	s0,48(s0)
   1352c:	00978793          	addi	a5,a5,9 # 10009 <main-0xa7>
   13530:	00f4a823          	sw	a5,16(s1)
   13534:	00800613          	li	a2,8
   13538:	00000593          	li	a1,0
   1353c:	0a04a623          	sw	zero,172(s1)
   13540:	0004b023          	sd	zero,0(s1)
   13544:	0004b423          	sd	zero,8(s1)
   13548:	0004bc23          	sd	zero,24(s1)
   1354c:	0204a023          	sw	zero,32(s1)
   13550:	0204a423          	sw	zero,40(s1)
   13554:	0a448513          	addi	a0,s1,164
   13558:	908fd0ef          	jal	ra,10660 <memset>
   1355c:	01893403          	ld	s0,24(s2)
   13560:	000207b7          	lui	a5,0x20
   13564:	0364bc23          	sd	s6,56(s1)
   13568:	0554b023          	sd	s5,64(s1)
   1356c:	0544b423          	sd	s4,72(s1)
   13570:	0534b823          	sd	s3,80(s1)
   13574:	0294b823          	sd	s1,48(s1)
   13578:	01278793          	addi	a5,a5,18 # 20012 <__multf3+0x366>
   1357c:	00f42823          	sw	a5,16(s0)
   13580:	0a042623          	sw	zero,172(s0)
   13584:	00043023          	sd	zero,0(s0)
   13588:	00043423          	sd	zero,8(s0)
   1358c:	00043c23          	sd	zero,24(s0)
   13590:	02042023          	sw	zero,32(s0)
   13594:	02042423          	sw	zero,40(s0)
   13598:	0a440513          	addi	a0,s0,164
   1359c:	00800613          	li	a2,8
   135a0:	00000593          	li	a1,0
   135a4:	8bcfd0ef          	jal	ra,10660 <memset>
   135a8:	03813083          	ld	ra,56(sp)
   135ac:	03643c23          	sd	s6,56(s0)
   135b0:	05543023          	sd	s5,64(s0)
   135b4:	05443423          	sd	s4,72(s0)
   135b8:	05343823          	sd	s3,80(s0)
   135bc:	02843823          	sd	s0,48(s0)
   135c0:	03013403          	ld	s0,48(sp)
   135c4:	00100793          	li	a5,1
   135c8:	04f92823          	sw	a5,80(s2)
   135cc:	02813483          	ld	s1,40(sp)
   135d0:	02013903          	ld	s2,32(sp)
   135d4:	01813983          	ld	s3,24(sp)
   135d8:	01013a03          	ld	s4,16(sp)
   135dc:	00813a83          	ld	s5,8(sp)
   135e0:	00013b03          	ld	s6,0(sp)
   135e4:	04010113          	addi	sp,sp,64
   135e8:	00008067          	ret

00000000000135ec <__fp_unlock>:
   135ec:	00000513          	li	a0,0
   135f0:	00008067          	ret

00000000000135f4 <__sfmoreglue>:
   135f4:	fe010113          	addi	sp,sp,-32
   135f8:	00913423          	sd	s1,8(sp)
   135fc:	0b000613          	li	a2,176
   13600:	fff5849b          	addiw	s1,a1,-1
   13604:	02c484b3          	mul	s1,s1,a2
   13608:	01213023          	sd	s2,0(sp)
   1360c:	00058913          	mv	s2,a1
   13610:	00813823          	sd	s0,16(sp)
   13614:	00113c23          	sd	ra,24(sp)
   13618:	0c848593          	addi	a1,s1,200
   1361c:	62c030ef          	jal	ra,16c48 <_malloc_r>
   13620:	00050413          	mv	s0,a0
   13624:	02050063          	beqz	a0,13644 <__sfmoreglue+0x50>
   13628:	01850513          	addi	a0,a0,24
   1362c:	00043023          	sd	zero,0(s0)
   13630:	01242423          	sw	s2,8(s0)
   13634:	00a43823          	sd	a0,16(s0)
   13638:	0b048613          	addi	a2,s1,176
   1363c:	00000593          	li	a1,0
   13640:	820fd0ef          	jal	ra,10660 <memset>
   13644:	01813083          	ld	ra,24(sp)
   13648:	00040513          	mv	a0,s0
   1364c:	01013403          	ld	s0,16(sp)
   13650:	00813483          	ld	s1,8(sp)
   13654:	00013903          	ld	s2,0(sp)
   13658:	02010113          	addi	sp,sp,32
   1365c:	00008067          	ret

0000000000013660 <__sfp>:
   13660:	fd010113          	addi	sp,sp,-48
   13664:	00913c23          	sd	s1,24(sp)
   13668:	6381b483          	ld	s1,1592(gp) # 23e10 <_global_impure_ptr>
   1366c:	01213823          	sd	s2,16(sp)
   13670:	02113423          	sd	ra,40(sp)
   13674:	0504a783          	lw	a5,80(s1)
   13678:	02813023          	sd	s0,32(sp)
   1367c:	01313423          	sd	s3,8(sp)
   13680:	00050913          	mv	s2,a0
   13684:	0a078c63          	beqz	a5,1373c <__sfp+0xdc>
   13688:	52048493          	addi	s1,s1,1312
   1368c:	0b000993          	li	s3,176
   13690:	0084a783          	lw	a5,8(s1)
   13694:	0104b403          	ld	s0,16(s1)
   13698:	08f05a63          	blez	a5,1372c <__sfp+0xcc>
   1369c:	fff7879b          	addiw	a5,a5,-1
   136a0:	02079793          	slli	a5,a5,0x20
   136a4:	0207d793          	srli	a5,a5,0x20
   136a8:	00178793          	addi	a5,a5,1
   136ac:	033787b3          	mul	a5,a5,s3
   136b0:	00f407b3          	add	a5,s0,a5
   136b4:	00c0006f          	j	136c0 <__sfp+0x60>
   136b8:	0b040413          	addi	s0,s0,176
   136bc:	06878863          	beq	a5,s0,1372c <__sfp+0xcc>
   136c0:	01041703          	lh	a4,16(s0)
   136c4:	fe071ae3          	bnez	a4,136b8 <__sfp+0x58>
   136c8:	ffff07b7          	lui	a5,0xffff0
   136cc:	00178793          	addi	a5,a5,1 # ffffffffffff0001 <__BSS_END__+0xfffffffffffcc029>
   136d0:	0a042623          	sw	zero,172(s0)
   136d4:	00043023          	sd	zero,0(s0)
   136d8:	00043423          	sd	zero,8(s0)
   136dc:	00f42823          	sw	a5,16(s0)
   136e0:	00043c23          	sd	zero,24(s0)
   136e4:	02042023          	sw	zero,32(s0)
   136e8:	02042423          	sw	zero,40(s0)
   136ec:	00800613          	li	a2,8
   136f0:	00000593          	li	a1,0
   136f4:	0a440513          	addi	a0,s0,164
   136f8:	f69fc0ef          	jal	ra,10660 <memset>
   136fc:	04043c23          	sd	zero,88(s0)
   13700:	06042023          	sw	zero,96(s0)
   13704:	06043c23          	sd	zero,120(s0)
   13708:	08042023          	sw	zero,128(s0)
   1370c:	02813083          	ld	ra,40(sp)
   13710:	00040513          	mv	a0,s0
   13714:	02013403          	ld	s0,32(sp)
   13718:	01813483          	ld	s1,24(sp)
   1371c:	01013903          	ld	s2,16(sp)
   13720:	00813983          	ld	s3,8(sp)
   13724:	03010113          	addi	sp,sp,48
   13728:	00008067          	ret
   1372c:	0004b403          	ld	s0,0(s1)
   13730:	00040c63          	beqz	s0,13748 <__sfp+0xe8>
   13734:	00040493          	mv	s1,s0
   13738:	f59ff06f          	j	13690 <__sfp+0x30>
   1373c:	00048513          	mv	a0,s1
   13740:	d35ff0ef          	jal	ra,13474 <__sinit.part.0>
   13744:	f45ff06f          	j	13688 <__sfp+0x28>
   13748:	00400593          	li	a1,4
   1374c:	00090513          	mv	a0,s2
   13750:	ea5ff0ef          	jal	ra,135f4 <__sfmoreglue>
   13754:	00a4b023          	sd	a0,0(s1)
   13758:	00050413          	mv	s0,a0
   1375c:	fc051ce3          	bnez	a0,13734 <__sfp+0xd4>
   13760:	00c00793          	li	a5,12
   13764:	00f92023          	sw	a5,0(s2)
   13768:	fa5ff06f          	j	1370c <__sfp+0xac>

000000000001376c <_cleanup>:
   1376c:	6381b503          	ld	a0,1592(gp) # 23e10 <_global_impure_ptr>
   13770:	0001d5b7          	lui	a1,0x1d
   13774:	95458593          	addi	a1,a1,-1708 # 1c954 <_fclose_r>
   13778:	5c00006f          	j	13d38 <_fwalk_reent>

000000000001377c <__sinit>:
   1377c:	05052783          	lw	a5,80(a0)
   13780:	00078463          	beqz	a5,13788 <__sinit+0xc>
   13784:	00008067          	ret
   13788:	cedff06f          	j	13474 <__sinit.part.0>

000000000001378c <__sfp_lock_acquire>:
   1378c:	00008067          	ret

0000000000013790 <__sfp_lock_release>:
   13790:	00008067          	ret

0000000000013794 <__sinit_lock_acquire>:
   13794:	00008067          	ret

0000000000013798 <__sinit_lock_release>:
   13798:	00008067          	ret

000000000001379c <__fp_lock_all>:
   1379c:	6481b503          	ld	a0,1608(gp) # 23e20 <_impure_ptr>
   137a0:	000135b7          	lui	a1,0x13
   137a4:	46058593          	addi	a1,a1,1120 # 13460 <__fp_lock>
   137a8:	4cc0006f          	j	13c74 <_fwalk>

00000000000137ac <__fp_unlock_all>:
   137ac:	6481b503          	ld	a0,1608(gp) # 23e20 <_impure_ptr>
   137b0:	000135b7          	lui	a1,0x13
   137b4:	5ec58593          	addi	a1,a1,1516 # 135ec <__fp_unlock>
   137b8:	4bc0006f          	j	13c74 <_fwalk>

00000000000137bc <__libc_fini_array>:
   137bc:	fe010113          	addi	sp,sp,-32
   137c0:	00813823          	sd	s0,16(sp)
   137c4:	000237b7          	lui	a5,0x23
   137c8:	00023437          	lui	s0,0x23
   137cc:	cd840413          	addi	s0,s0,-808 # 22cd8 <__init_array_end>
   137d0:	ce078793          	addi	a5,a5,-800 # 22ce0 <__fini_array_end>
   137d4:	408787b3          	sub	a5,a5,s0
   137d8:	00913423          	sd	s1,8(sp)
   137dc:	00113c23          	sd	ra,24(sp)
   137e0:	4037d493          	srai	s1,a5,0x3
   137e4:	02048063          	beqz	s1,13804 <__libc_fini_array+0x48>
   137e8:	ff878793          	addi	a5,a5,-8
   137ec:	00878433          	add	s0,a5,s0
   137f0:	00043783          	ld	a5,0(s0)
   137f4:	fff48493          	addi	s1,s1,-1
   137f8:	ff840413          	addi	s0,s0,-8
   137fc:	000780e7          	jalr	a5
   13800:	fe0498e3          	bnez	s1,137f0 <__libc_fini_array+0x34>
   13804:	01813083          	ld	ra,24(sp)
   13808:	01013403          	ld	s0,16(sp)
   1380c:	00813483          	ld	s1,8(sp)
   13810:	02010113          	addi	sp,sp,32
   13814:	00008067          	ret

0000000000013818 <_malloc_trim_r>:
   13818:	fd010113          	addi	sp,sp,-48
   1381c:	01313423          	sd	s3,8(sp)
   13820:	000239b7          	lui	s3,0x23
   13824:	02813023          	sd	s0,32(sp)
   13828:	00913c23          	sd	s1,24(sp)
   1382c:	01213823          	sd	s2,16(sp)
   13830:	01413023          	sd	s4,0(sp)
   13834:	02113423          	sd	ra,40(sp)
   13838:	00058a13          	mv	s4,a1
   1383c:	00050913          	mv	s2,a0
   13840:	5d098993          	addi	s3,s3,1488 # 235d0 <__malloc_av_>
   13844:	555030ef          	jal	ra,17598 <__malloc_lock>
   13848:	0109b703          	ld	a4,16(s3)
   1384c:	000017b7          	lui	a5,0x1
   13850:	fdf78413          	addi	s0,a5,-33 # fdf <main-0xf0d1>
   13854:	00873483          	ld	s1,8(a4)
   13858:	41440433          	sub	s0,s0,s4
   1385c:	ffc4f493          	andi	s1,s1,-4
   13860:	00940433          	add	s0,s0,s1
   13864:	00c45413          	srli	s0,s0,0xc
   13868:	fff40413          	addi	s0,s0,-1
   1386c:	00c41413          	slli	s0,s0,0xc
   13870:	00f44e63          	blt	s0,a5,1388c <_malloc_trim_r+0x74>
   13874:	00000593          	li	a1,0
   13878:	00090513          	mv	a0,s2
   1387c:	675040ef          	jal	ra,186f0 <_sbrk_r>
   13880:	0109b783          	ld	a5,16(s3)
   13884:	009787b3          	add	a5,a5,s1
   13888:	02f50863          	beq	a0,a5,138b8 <_malloc_trim_r+0xa0>
   1388c:	00090513          	mv	a0,s2
   13890:	50d030ef          	jal	ra,1759c <__malloc_unlock>
   13894:	02813083          	ld	ra,40(sp)
   13898:	02013403          	ld	s0,32(sp)
   1389c:	01813483          	ld	s1,24(sp)
   138a0:	01013903          	ld	s2,16(sp)
   138a4:	00813983          	ld	s3,8(sp)
   138a8:	00013a03          	ld	s4,0(sp)
   138ac:	00000513          	li	a0,0
   138b0:	03010113          	addi	sp,sp,48
   138b4:	00008067          	ret
   138b8:	408005b3          	neg	a1,s0
   138bc:	00090513          	mv	a0,s2
   138c0:	631040ef          	jal	ra,186f0 <_sbrk_r>
   138c4:	fff00793          	li	a5,-1
   138c8:	04f50863          	beq	a0,a5,13918 <_malloc_trim_r+0x100>
   138cc:	6d018793          	addi	a5,gp,1744 # 23ea8 <__malloc_current_mallinfo>
   138d0:	0007a703          	lw	a4,0(a5)
   138d4:	0109b683          	ld	a3,16(s3)
   138d8:	408484b3          	sub	s1,s1,s0
   138dc:	0014e493          	ori	s1,s1,1
   138e0:	4087043b          	subw	s0,a4,s0
   138e4:	00090513          	mv	a0,s2
   138e8:	0096b423          	sd	s1,8(a3)
   138ec:	0087a023          	sw	s0,0(a5)
   138f0:	4ad030ef          	jal	ra,1759c <__malloc_unlock>
   138f4:	02813083          	ld	ra,40(sp)
   138f8:	02013403          	ld	s0,32(sp)
   138fc:	01813483          	ld	s1,24(sp)
   13900:	01013903          	ld	s2,16(sp)
   13904:	00813983          	ld	s3,8(sp)
   13908:	00013a03          	ld	s4,0(sp)
   1390c:	00100513          	li	a0,1
   13910:	03010113          	addi	sp,sp,48
   13914:	00008067          	ret
   13918:	00000593          	li	a1,0
   1391c:	00090513          	mv	a0,s2
   13920:	5d1040ef          	jal	ra,186f0 <_sbrk_r>
   13924:	0109b703          	ld	a4,16(s3)
   13928:	01f00693          	li	a3,31
   1392c:	40e507b3          	sub	a5,a0,a4
   13930:	f4f6dee3          	bge	a3,a5,1388c <_malloc_trim_r+0x74>
   13934:	6501b683          	ld	a3,1616(gp) # 23e28 <__malloc_sbrk_base>
   13938:	0017e793          	ori	a5,a5,1
   1393c:	00f73423          	sd	a5,8(a4)
   13940:	40d50533          	sub	a0,a0,a3
   13944:	6ca1a823          	sw	a0,1744(gp) # 23ea8 <__malloc_current_mallinfo>
   13948:	f45ff06f          	j	1388c <_malloc_trim_r+0x74>

000000000001394c <_free_r>:
   1394c:	12058e63          	beqz	a1,13a88 <_free_r+0x13c>
   13950:	fe010113          	addi	sp,sp,-32
   13954:	00813823          	sd	s0,16(sp)
   13958:	00913423          	sd	s1,8(sp)
   1395c:	00058413          	mv	s0,a1
   13960:	00050493          	mv	s1,a0
   13964:	00113c23          	sd	ra,24(sp)
   13968:	431030ef          	jal	ra,17598 <__malloc_lock>
   1396c:	ff843503          	ld	a0,-8(s0)
   13970:	ff040713          	addi	a4,s0,-16
   13974:	000235b7          	lui	a1,0x23
   13978:	ffe57793          	andi	a5,a0,-2
   1397c:	00f70633          	add	a2,a4,a5
   13980:	5d058593          	addi	a1,a1,1488 # 235d0 <__malloc_av_>
   13984:	00863683          	ld	a3,8(a2)
   13988:	0105b803          	ld	a6,16(a1)
   1398c:	ffc6f693          	andi	a3,a3,-4
   13990:	1cc80063          	beq	a6,a2,13b50 <_free_r+0x204>
   13994:	00d63423          	sd	a3,8(a2)
   13998:	00157513          	andi	a0,a0,1
   1399c:	00d60833          	add	a6,a2,a3
   139a0:	0a051463          	bnez	a0,13a48 <_free_r+0xfc>
   139a4:	ff043303          	ld	t1,-16(s0)
   139a8:	00883803          	ld	a6,8(a6)
   139ac:	00023537          	lui	a0,0x23
   139b0:	40670733          	sub	a4,a4,t1
   139b4:	01073883          	ld	a7,16(a4)
   139b8:	5e050513          	addi	a0,a0,1504 # 235e0 <__malloc_av_+0x10>
   139bc:	006787b3          	add	a5,a5,t1
   139c0:	00187813          	andi	a6,a6,1
   139c4:	14a88663          	beq	a7,a0,13b10 <_free_r+0x1c4>
   139c8:	01873303          	ld	t1,24(a4)
   139cc:	0068bc23          	sd	t1,24(a7)
   139d0:	01133823          	sd	a7,16(t1)
   139d4:	1e080863          	beqz	a6,13bc4 <_free_r+0x278>
   139d8:	0017e693          	ori	a3,a5,1
   139dc:	00d73423          	sd	a3,8(a4)
   139e0:	00f63023          	sd	a5,0(a2)
   139e4:	1ff00693          	li	a3,511
   139e8:	0af6ec63          	bltu	a3,a5,13aa0 <_free_r+0x154>
   139ec:	0037d793          	srli	a5,a5,0x3
   139f0:	0017869b          	addiw	a3,a5,1
   139f4:	0016969b          	slliw	a3,a3,0x1
   139f8:	00369693          	slli	a3,a3,0x3
   139fc:	0085b803          	ld	a6,8(a1)
   13a00:	00d586b3          	add	a3,a1,a3
   13a04:	0006b503          	ld	a0,0(a3)
   13a08:	4027d61b          	sraiw	a2,a5,0x2
   13a0c:	00100793          	li	a5,1
   13a10:	00c797b3          	sll	a5,a5,a2
   13a14:	0107e7b3          	or	a5,a5,a6
   13a18:	ff068613          	addi	a2,a3,-16
   13a1c:	00c73c23          	sd	a2,24(a4)
   13a20:	00a73823          	sd	a0,16(a4)
   13a24:	00f5b423          	sd	a5,8(a1)
   13a28:	00e6b023          	sd	a4,0(a3)
   13a2c:	00e53c23          	sd	a4,24(a0)
   13a30:	01013403          	ld	s0,16(sp)
   13a34:	01813083          	ld	ra,24(sp)
   13a38:	00048513          	mv	a0,s1
   13a3c:	00813483          	ld	s1,8(sp)
   13a40:	02010113          	addi	sp,sp,32
   13a44:	3590306f          	j	1759c <__malloc_unlock>
   13a48:	00883503          	ld	a0,8(a6)
   13a4c:	00157513          	andi	a0,a0,1
   13a50:	02051e63          	bnez	a0,13a8c <_free_r+0x140>
   13a54:	00023537          	lui	a0,0x23
   13a58:	00d787b3          	add	a5,a5,a3
   13a5c:	5e050513          	addi	a0,a0,1504 # 235e0 <__malloc_av_+0x10>
   13a60:	01063683          	ld	a3,16(a2)
   13a64:	0017e893          	ori	a7,a5,1
   13a68:	00f70833          	add	a6,a4,a5
   13a6c:	16a68a63          	beq	a3,a0,13be0 <_free_r+0x294>
   13a70:	01863603          	ld	a2,24(a2)
   13a74:	00c6bc23          	sd	a2,24(a3)
   13a78:	00d63823          	sd	a3,16(a2)
   13a7c:	01173423          	sd	a7,8(a4)
   13a80:	00f83023          	sd	a5,0(a6)
   13a84:	f61ff06f          	j	139e4 <_free_r+0x98>
   13a88:	00008067          	ret
   13a8c:	0017e693          	ori	a3,a5,1
   13a90:	fed43c23          	sd	a3,-8(s0)
   13a94:	00f63023          	sd	a5,0(a2)
   13a98:	1ff00693          	li	a3,511
   13a9c:	f4f6f8e3          	bgeu	a3,a5,139ec <_free_r+0xa0>
   13aa0:	0097d693          	srli	a3,a5,0x9
   13aa4:	00400613          	li	a2,4
   13aa8:	0ed66a63          	bltu	a2,a3,13b9c <_free_r+0x250>
   13aac:	0067d693          	srli	a3,a5,0x6
   13ab0:	0396851b          	addiw	a0,a3,57
   13ab4:	0015151b          	slliw	a0,a0,0x1
   13ab8:	0386861b          	addiw	a2,a3,56
   13abc:	00351513          	slli	a0,a0,0x3
   13ac0:	00a58533          	add	a0,a1,a0
   13ac4:	00053683          	ld	a3,0(a0)
   13ac8:	ff050513          	addi	a0,a0,-16
   13acc:	12d50863          	beq	a0,a3,13bfc <_free_r+0x2b0>
   13ad0:	0086b603          	ld	a2,8(a3)
   13ad4:	ffc67613          	andi	a2,a2,-4
   13ad8:	00c7f663          	bgeu	a5,a2,13ae4 <_free_r+0x198>
   13adc:	0106b683          	ld	a3,16(a3)
   13ae0:	fed518e3          	bne	a0,a3,13ad0 <_free_r+0x184>
   13ae4:	0186b503          	ld	a0,24(a3)
   13ae8:	00a73c23          	sd	a0,24(a4)
   13aec:	00d73823          	sd	a3,16(a4)
   13af0:	01013403          	ld	s0,16(sp)
   13af4:	00e53823          	sd	a4,16(a0)
   13af8:	01813083          	ld	ra,24(sp)
   13afc:	00048513          	mv	a0,s1
   13b00:	00813483          	ld	s1,8(sp)
   13b04:	00e6bc23          	sd	a4,24(a3)
   13b08:	02010113          	addi	sp,sp,32
   13b0c:	2910306f          	j	1759c <__malloc_unlock>
   13b10:	14081a63          	bnez	a6,13c64 <_free_r+0x318>
   13b14:	01863583          	ld	a1,24(a2)
   13b18:	01063603          	ld	a2,16(a2)
   13b1c:	00f687b3          	add	a5,a3,a5
   13b20:	01013403          	ld	s0,16(sp)
   13b24:	00b63c23          	sd	a1,24(a2)
   13b28:	00c5b823          	sd	a2,16(a1)
   13b2c:	0017e693          	ori	a3,a5,1
   13b30:	01813083          	ld	ra,24(sp)
   13b34:	00d73423          	sd	a3,8(a4)
   13b38:	00048513          	mv	a0,s1
   13b3c:	00f70733          	add	a4,a4,a5
   13b40:	00813483          	ld	s1,8(sp)
   13b44:	00f73023          	sd	a5,0(a4)
   13b48:	02010113          	addi	sp,sp,32
   13b4c:	2510306f          	j	1759c <__malloc_unlock>
   13b50:	00157513          	andi	a0,a0,1
   13b54:	00d787b3          	add	a5,a5,a3
   13b58:	02051063          	bnez	a0,13b78 <_free_r+0x22c>
   13b5c:	ff043503          	ld	a0,-16(s0)
   13b60:	40a70733          	sub	a4,a4,a0
   13b64:	01873683          	ld	a3,24(a4)
   13b68:	01073603          	ld	a2,16(a4)
   13b6c:	00a787b3          	add	a5,a5,a0
   13b70:	00d63c23          	sd	a3,24(a2)
   13b74:	00c6b823          	sd	a2,16(a3)
   13b78:	0017e613          	ori	a2,a5,1
   13b7c:	6581b683          	ld	a3,1624(gp) # 23e30 <__malloc_trim_threshold>
   13b80:	00c73423          	sd	a2,8(a4)
   13b84:	00e5b823          	sd	a4,16(a1)
   13b88:	ead7e4e3          	bltu	a5,a3,13a30 <_free_r+0xe4>
   13b8c:	6781b583          	ld	a1,1656(gp) # 23e50 <__malloc_top_pad>
   13b90:	00048513          	mv	a0,s1
   13b94:	c85ff0ef          	jal	ra,13818 <_malloc_trim_r>
   13b98:	e99ff06f          	j	13a30 <_free_r+0xe4>
   13b9c:	01400613          	li	a2,20
   13ba0:	02d67663          	bgeu	a2,a3,13bcc <_free_r+0x280>
   13ba4:	05400613          	li	a2,84
   13ba8:	06d66863          	bltu	a2,a3,13c18 <_free_r+0x2cc>
   13bac:	00c7d693          	srli	a3,a5,0xc
   13bb0:	06f6851b          	addiw	a0,a3,111
   13bb4:	0015151b          	slliw	a0,a0,0x1
   13bb8:	06e6861b          	addiw	a2,a3,110
   13bbc:	00351513          	slli	a0,a0,0x3
   13bc0:	f01ff06f          	j	13ac0 <_free_r+0x174>
   13bc4:	00d787b3          	add	a5,a5,a3
   13bc8:	e99ff06f          	j	13a60 <_free_r+0x114>
   13bcc:	05c6851b          	addiw	a0,a3,92
   13bd0:	0015151b          	slliw	a0,a0,0x1
   13bd4:	05b6861b          	addiw	a2,a3,91
   13bd8:	00351513          	slli	a0,a0,0x3
   13bdc:	ee5ff06f          	j	13ac0 <_free_r+0x174>
   13be0:	02e5b423          	sd	a4,40(a1)
   13be4:	02e5b023          	sd	a4,32(a1)
   13be8:	00a73c23          	sd	a0,24(a4)
   13bec:	00a73823          	sd	a0,16(a4)
   13bf0:	01173423          	sd	a7,8(a4)
   13bf4:	00f83023          	sd	a5,0(a6)
   13bf8:	e39ff06f          	j	13a30 <_free_r+0xe4>
   13bfc:	0085b803          	ld	a6,8(a1)
   13c00:	4026561b          	sraiw	a2,a2,0x2
   13c04:	00100793          	li	a5,1
   13c08:	00c79633          	sll	a2,a5,a2
   13c0c:	01066633          	or	a2,a2,a6
   13c10:	00c5b423          	sd	a2,8(a1)
   13c14:	ed5ff06f          	j	13ae8 <_free_r+0x19c>
   13c18:	15400613          	li	a2,340
   13c1c:	00d66e63          	bltu	a2,a3,13c38 <_free_r+0x2ec>
   13c20:	00f7d693          	srli	a3,a5,0xf
   13c24:	0786851b          	addiw	a0,a3,120
   13c28:	0015151b          	slliw	a0,a0,0x1
   13c2c:	0776861b          	addiw	a2,a3,119
   13c30:	00351513          	slli	a0,a0,0x3
   13c34:	e8dff06f          	j	13ac0 <_free_r+0x174>
   13c38:	55400613          	li	a2,1364
   13c3c:	00d66e63          	bltu	a2,a3,13c58 <_free_r+0x30c>
   13c40:	0127d693          	srli	a3,a5,0x12
   13c44:	07d6851b          	addiw	a0,a3,125
   13c48:	0015151b          	slliw	a0,a0,0x1
   13c4c:	07c6861b          	addiw	a2,a3,124
   13c50:	00351513          	slli	a0,a0,0x3
   13c54:	e6dff06f          	j	13ac0 <_free_r+0x174>
   13c58:	7f000513          	li	a0,2032
   13c5c:	07e00613          	li	a2,126
   13c60:	e61ff06f          	j	13ac0 <_free_r+0x174>
   13c64:	0017e693          	ori	a3,a5,1
   13c68:	00d73423          	sd	a3,8(a4)
   13c6c:	00f63023          	sd	a5,0(a2)
   13c70:	dc1ff06f          	j	13a30 <_free_r+0xe4>

0000000000013c74 <_fwalk>:
   13c74:	fb010113          	addi	sp,sp,-80
   13c78:	03213823          	sd	s2,48(sp)
   13c7c:	03313423          	sd	s3,40(sp)
   13c80:	03413023          	sd	s4,32(sp)
   13c84:	01513c23          	sd	s5,24(sp)
   13c88:	01613823          	sd	s6,16(sp)
   13c8c:	01713423          	sd	s7,8(sp)
   13c90:	04113423          	sd	ra,72(sp)
   13c94:	04813023          	sd	s0,64(sp)
   13c98:	02913c23          	sd	s1,56(sp)
   13c9c:	00058a13          	mv	s4,a1
   13ca0:	52050913          	addi	s2,a0,1312
   13ca4:	00000b13          	li	s6,0
   13ca8:	0b000a93          	li	s5,176
   13cac:	00100b93          	li	s7,1
   13cb0:	fff00993          	li	s3,-1
   13cb4:	00892783          	lw	a5,8(s2)
   13cb8:	01093403          	ld	s0,16(s2)
   13cbc:	04f05263          	blez	a5,13d00 <_fwalk+0x8c>
   13cc0:	fff7849b          	addiw	s1,a5,-1
   13cc4:	02049493          	slli	s1,s1,0x20
   13cc8:	0204d493          	srli	s1,s1,0x20
   13ccc:	00148493          	addi	s1,s1,1
   13cd0:	035484b3          	mul	s1,s1,s5
   13cd4:	009404b3          	add	s1,s0,s1
   13cd8:	01045783          	lhu	a5,16(s0)
   13cdc:	00fbfe63          	bgeu	s7,a5,13cf8 <_fwalk+0x84>
   13ce0:	01241783          	lh	a5,18(s0)
   13ce4:	00040513          	mv	a0,s0
   13ce8:	01378863          	beq	a5,s3,13cf8 <_fwalk+0x84>
   13cec:	000a00e7          	jalr	s4
   13cf0:	01656b33          	or	s6,a0,s6
   13cf4:	000b0b1b          	sext.w	s6,s6
   13cf8:	0b040413          	addi	s0,s0,176
   13cfc:	fc849ee3          	bne	s1,s0,13cd8 <_fwalk+0x64>
   13d00:	00093903          	ld	s2,0(s2)
   13d04:	fa0918e3          	bnez	s2,13cb4 <_fwalk+0x40>
   13d08:	04813083          	ld	ra,72(sp)
   13d0c:	04013403          	ld	s0,64(sp)
   13d10:	03813483          	ld	s1,56(sp)
   13d14:	03013903          	ld	s2,48(sp)
   13d18:	02813983          	ld	s3,40(sp)
   13d1c:	02013a03          	ld	s4,32(sp)
   13d20:	01813a83          	ld	s5,24(sp)
   13d24:	00813b83          	ld	s7,8(sp)
   13d28:	000b0513          	mv	a0,s6
   13d2c:	01013b03          	ld	s6,16(sp)
   13d30:	05010113          	addi	sp,sp,80
   13d34:	00008067          	ret

0000000000013d38 <_fwalk_reent>:
   13d38:	fb010113          	addi	sp,sp,-80
   13d3c:	03213823          	sd	s2,48(sp)
   13d40:	03313423          	sd	s3,40(sp)
   13d44:	03413023          	sd	s4,32(sp)
   13d48:	01513c23          	sd	s5,24(sp)
   13d4c:	01613823          	sd	s6,16(sp)
   13d50:	01713423          	sd	s7,8(sp)
   13d54:	01813023          	sd	s8,0(sp)
   13d58:	04113423          	sd	ra,72(sp)
   13d5c:	04813023          	sd	s0,64(sp)
   13d60:	02913c23          	sd	s1,56(sp)
   13d64:	00050c13          	mv	s8,a0
   13d68:	00058a13          	mv	s4,a1
   13d6c:	52050913          	addi	s2,a0,1312
   13d70:	00000b13          	li	s6,0
   13d74:	0b000a93          	li	s5,176
   13d78:	00100b93          	li	s7,1
   13d7c:	fff00993          	li	s3,-1
   13d80:	00892783          	lw	a5,8(s2)
   13d84:	01093403          	ld	s0,16(s2)
   13d88:	04f05463          	blez	a5,13dd0 <_fwalk_reent+0x98>
   13d8c:	fff7849b          	addiw	s1,a5,-1
   13d90:	02049493          	slli	s1,s1,0x20
   13d94:	0204d493          	srli	s1,s1,0x20
   13d98:	00148493          	addi	s1,s1,1
   13d9c:	035484b3          	mul	s1,s1,s5
   13da0:	009404b3          	add	s1,s0,s1
   13da4:	01045783          	lhu	a5,16(s0)
   13da8:	02fbf063          	bgeu	s7,a5,13dc8 <_fwalk_reent+0x90>
   13dac:	01241783          	lh	a5,18(s0)
   13db0:	00040593          	mv	a1,s0
   13db4:	000c0513          	mv	a0,s8
   13db8:	01378863          	beq	a5,s3,13dc8 <_fwalk_reent+0x90>
   13dbc:	000a00e7          	jalr	s4
   13dc0:	01656b33          	or	s6,a0,s6
   13dc4:	000b0b1b          	sext.w	s6,s6
   13dc8:	0b040413          	addi	s0,s0,176
   13dcc:	fc849ce3          	bne	s1,s0,13da4 <_fwalk_reent+0x6c>
   13dd0:	00093903          	ld	s2,0(s2)
   13dd4:	fa0916e3          	bnez	s2,13d80 <_fwalk_reent+0x48>
   13dd8:	04813083          	ld	ra,72(sp)
   13ddc:	04013403          	ld	s0,64(sp)
   13de0:	03813483          	ld	s1,56(sp)
   13de4:	03013903          	ld	s2,48(sp)
   13de8:	02813983          	ld	s3,40(sp)
   13dec:	02013a03          	ld	s4,32(sp)
   13df0:	01813a83          	ld	s5,24(sp)
   13df4:	00813b83          	ld	s7,8(sp)
   13df8:	00013c03          	ld	s8,0(sp)
   13dfc:	000b0513          	mv	a0,s6
   13e00:	01013b03          	ld	s6,16(sp)
   13e04:	05010113          	addi	sp,sp,80
   13e08:	00008067          	ret

0000000000013e0c <eshdn1>:
   13e0c:	00450693          	addi	a3,a0,4
   13e10:	00000793          	li	a5,0
   13e14:	01a50513          	addi	a0,a0,26
   13e18:	ffff8837          	lui	a6,0xffff8
   13e1c:	01c0006f          	j	13e38 <eshdn1+0x2c>
   13e20:	0017979b          	slliw	a5,a5,0x1
   13e24:	00e69023          	sh	a4,0(a3)
   13e28:	03079793          	slli	a5,a5,0x30
   13e2c:	00268693          	addi	a3,a3,2
   13e30:	0307d793          	srli	a5,a5,0x30
   13e34:	02d50e63          	beq	a0,a3,13e70 <eshdn1+0x64>
   13e38:	0006d703          	lhu	a4,0(a3)
   13e3c:	00177613          	andi	a2,a4,1
   13e40:	00060463          	beqz	a2,13e48 <eshdn1+0x3c>
   13e44:	0017e793          	ori	a5,a5,1
   13e48:	00175713          	srli	a4,a4,0x1
   13e4c:	0027f613          	andi	a2,a5,2
   13e50:	010765b3          	or	a1,a4,a6
   13e54:	fc0606e3          	beqz	a2,13e20 <eshdn1+0x14>
   13e58:	0017979b          	slliw	a5,a5,0x1
   13e5c:	00b69023          	sh	a1,0(a3)
   13e60:	03079793          	slli	a5,a5,0x30
   13e64:	00268693          	addi	a3,a3,2
   13e68:	0307d793          	srli	a5,a5,0x30
   13e6c:	fcd516e3          	bne	a0,a3,13e38 <eshdn1+0x2c>
   13e70:	00008067          	ret

0000000000013e74 <eshup1>:
   13e74:	01850693          	addi	a3,a0,24
   13e78:	00000713          	li	a4,0
   13e7c:	00250513          	addi	a0,a0,2
   13e80:	01c0006f          	j	13e9c <eshup1+0x28>
   13e84:	0017171b          	slliw	a4,a4,0x1
   13e88:	00f69023          	sh	a5,0(a3)
   13e8c:	03071713          	slli	a4,a4,0x30
   13e90:	ffe68693          	addi	a3,a3,-2
   13e94:	03075713          	srli	a4,a4,0x30
   13e98:	04d50663          	beq	a0,a3,13ee4 <eshup1+0x70>
   13e9c:	0006d783          	lhu	a5,0(a3)
   13ea0:	0107961b          	slliw	a2,a5,0x10
   13ea4:	4106561b          	sraiw	a2,a2,0x10
   13ea8:	02061593          	slli	a1,a2,0x20
   13eac:	0017979b          	slliw	a5,a5,0x1
   13eb0:	0005d463          	bgez	a1,13eb8 <eshup1+0x44>
   13eb4:	00176713          	ori	a4,a4,1
   13eb8:	03079793          	slli	a5,a5,0x30
   13ebc:	0307d793          	srli	a5,a5,0x30
   13ec0:	00277613          	andi	a2,a4,2
   13ec4:	0017e593          	ori	a1,a5,1
   13ec8:	fa060ee3          	beqz	a2,13e84 <eshup1+0x10>
   13ecc:	0017171b          	slliw	a4,a4,0x1
   13ed0:	00b69023          	sh	a1,0(a3)
   13ed4:	03071713          	slli	a4,a4,0x30
   13ed8:	ffe68693          	addi	a3,a3,-2
   13edc:	03075713          	srli	a4,a4,0x30
   13ee0:	fad51ee3          	bne	a0,a3,13e9c <eshup1+0x28>
   13ee4:	00008067          	ret

0000000000013ee8 <m16m>:
   13ee8:	fe010113          	addi	sp,sp,-32
   13eec:	00010e37          	lui	t3,0x10
   13ef0:	00011b23          	sh	zero,22(sp)
   13ef4:	00011c23          	sh	zero,24(sp)
   13ef8:	01858593          	addi	a1,a1,24
   13efc:	01810793          	addi	a5,sp,24
   13f00:	00410813          	addi	a6,sp,4
   13f04:	fffe0e13          	addi	t3,t3,-1 # ffff <main-0xb1>
   13f08:	0005d703          	lhu	a4,0(a1)
   13f0c:	ffe78793          	addi	a5,a5,-2
   13f10:	ffe58593          	addi	a1,a1,-2
   13f14:	02071863          	bnez	a4,13f44 <m16m+0x5c>
   13f18:	fe079f23          	sh	zero,-2(a5)
   13f1c:	ff0796e3          	bne	a5,a6,13f08 <m16m+0x20>
   13f20:	00460613          	addi	a2,a2,4
   13f24:	01a10693          	addi	a3,sp,26
   13f28:	0007d703          	lhu	a4,0(a5)
   13f2c:	00278793          	addi	a5,a5,2
   13f30:	00260613          	addi	a2,a2,2
   13f34:	fee61f23          	sh	a4,-2(a2)
   13f38:	fed798e3          	bne	a5,a3,13f28 <m16m+0x40>
   13f3c:	02010113          	addi	sp,sp,32
   13f40:	00008067          	ret
   13f44:	02a70733          	mul	a4,a4,a0
   13f48:	0027d883          	lhu	a7,2(a5)
   13f4c:	0007d303          	lhu	t1,0(a5)
   13f50:	01c776b3          	and	a3,a4,t3
   13f54:	011686b3          	add	a3,a3,a7
   13f58:	01075713          	srli	a4,a4,0x10
   13f5c:	0106d893          	srli	a7,a3,0x10
   13f60:	00670733          	add	a4,a4,t1
   13f64:	01170733          	add	a4,a4,a7
   13f68:	01075893          	srli	a7,a4,0x10
   13f6c:	00d79123          	sh	a3,2(a5)
   13f70:	00e79023          	sh	a4,0(a5)
   13f74:	ff179f23          	sh	a7,-2(a5)
   13f78:	f90798e3          	bne	a5,a6,13f08 <m16m+0x20>
   13f7c:	fa5ff06f          	j	13f20 <m16m+0x38>

0000000000013f80 <eisnan.part.0>:
   13f80:	01250713          	addi	a4,a0,18
   13f84:	00055783          	lhu	a5,0(a0)
   13f88:	00250513          	addi	a0,a0,2
   13f8c:	00079863          	bnez	a5,13f9c <eisnan.part.0+0x1c>
   13f90:	fee51ae3          	bne	a0,a4,13f84 <eisnan.part.0+0x4>
   13f94:	00000513          	li	a0,0
   13f98:	00008067          	ret
   13f9c:	00100513          	li	a0,1
   13fa0:	00008067          	ret

0000000000013fa4 <eneg>:
   13fa4:	fe010113          	addi	sp,sp,-32
   13fa8:	00913423          	sd	s1,8(sp)
   13fac:	01255483          	lhu	s1,18(a0)
   13fb0:	00813823          	sd	s0,16(sp)
   13fb4:	00113c23          	sd	ra,24(sp)
   13fb8:	fff4c793          	not	a5,s1
   13fbc:	03179713          	slli	a4,a5,0x31
   13fc0:	00050413          	mv	s0,a0
   13fc4:	00071663          	bnez	a4,13fd0 <eneg+0x2c>
   13fc8:	fb9ff0ef          	jal	ra,13f80 <eisnan.part.0>
   13fcc:	00051863          	bnez	a0,13fdc <eneg+0x38>
   13fd0:	ffff87b7          	lui	a5,0xffff8
   13fd4:	00f4c4b3          	xor	s1,s1,a5
   13fd8:	00941923          	sh	s1,18(s0)
   13fdc:	01813083          	ld	ra,24(sp)
   13fe0:	01013403          	ld	s0,16(sp)
   13fe4:	00813483          	ld	s1,8(sp)
   13fe8:	02010113          	addi	sp,sp,32
   13fec:	00008067          	ret

0000000000013ff0 <eisneg>:
   13ff0:	ff010113          	addi	sp,sp,-16
   13ff4:	00813023          	sd	s0,0(sp)
   13ff8:	01255403          	lhu	s0,18(a0)
   13ffc:	00113423          	sd	ra,8(sp)
   14000:	fff44793          	not	a5,s0
   14004:	03179713          	slli	a4,a5,0x31
   14008:	00071a63          	bnez	a4,1401c <eisneg+0x2c>
   1400c:	f75ff0ef          	jal	ra,13f80 <eisnan.part.0>
   14010:	00050793          	mv	a5,a0
   14014:	00000513          	li	a0,0
   14018:	00079463          	bnez	a5,14020 <eisneg+0x30>
   1401c:	00f45513          	srli	a0,s0,0xf
   14020:	00813083          	ld	ra,8(sp)
   14024:	00013403          	ld	s0,0(sp)
   14028:	01010113          	addi	sp,sp,16
   1402c:	00008067          	ret

0000000000014030 <emovi>:
   14030:	01255783          	lhu	a5,18(a0)
   14034:	fc010113          	addi	sp,sp,-64
   14038:	02813823          	sd	s0,48(sp)
   1403c:	00f7d79b          	srliw	a5,a5,0xf
   14040:	02913423          	sd	s1,40(sp)
   14044:	02113c23          	sd	ra,56(sp)
   14048:	03213023          	sd	s2,32(sp)
   1404c:	01313c23          	sd	s3,24(sp)
   14050:	40f007bb          	negw	a5,a5
   14054:	00f59023          	sh	a5,0(a1)
   14058:	01255783          	lhu	a5,18(a0)
   1405c:	00008737          	lui	a4,0x8
   14060:	fff70713          	addi	a4,a4,-1 # 7fff <main-0x80b1>
   14064:	00f777b3          	and	a5,a4,a5
   14068:	00f59123          	sh	a5,2(a1)
   1406c:	00050493          	mv	s1,a0
   14070:	01050413          	addi	s0,a0,16
   14074:	04e78263          	beq	a5,a4,140b8 <emovi+0x88>
   14078:	00658793          	addi	a5,a1,6
   1407c:	00059223          	sh	zero,4(a1)
   14080:	ffe50513          	addi	a0,a0,-2
   14084:	00045703          	lhu	a4,0(s0)
   14088:	ffe40413          	addi	s0,s0,-2
   1408c:	00278793          	addi	a5,a5,2 # ffffffffffff8002 <__BSS_END__+0xfffffffffffd402a>
   14090:	fee79f23          	sh	a4,-2(a5)
   14094:	fe8518e3          	bne	a0,s0,14084 <emovi+0x54>
   14098:	00059c23          	sh	zero,24(a1)
   1409c:	03813083          	ld	ra,56(sp)
   140a0:	03013403          	ld	s0,48(sp)
   140a4:	02813483          	ld	s1,40(sp)
   140a8:	02013903          	ld	s2,32(sp)
   140ac:	01813983          	ld	s3,24(sp)
   140b0:	04010113          	addi	sp,sp,64
   140b4:	00008067          	ret
   140b8:	0007869b          	sext.w	a3,a5
   140bc:	01255783          	lhu	a5,18(a0)
   140c0:	00458913          	addi	s2,a1,4
   140c4:	00f6f7b3          	and	a5,a3,a5
   140c8:	02d79c63          	bne	a5,a3,14100 <emovi+0xd0>
   140cc:	00b13423          	sd	a1,8(sp)
   140d0:	eb1ff0ef          	jal	ra,13f80 <eisnan.part.0>
   140d4:	00813583          	ld	a1,8(sp)
   140d8:	02050463          	beqz	a0,14100 <emovi+0xd0>
   140dc:	00658793          	addi	a5,a1,6
   140e0:	00059223          	sh	zero,4(a1)
   140e4:	ffc48513          	addi	a0,s1,-4
   140e8:	00045703          	lhu	a4,0(s0)
   140ec:	ffe40413          	addi	s0,s0,-2
   140f0:	00278793          	addi	a5,a5,2
   140f4:	fee79f23          	sh	a4,-2(a5)
   140f8:	fe8518e3          	bne	a0,s0,140e8 <emovi+0xb8>
   140fc:	fa1ff06f          	j	1409c <emovi+0x6c>
   14100:	01a58993          	addi	s3,a1,26
   14104:	00290913          	addi	s2,s2,2
   14108:	fe091f23          	sh	zero,-2(s2)
   1410c:	ff299ce3          	bne	s3,s2,14104 <emovi+0xd4>
   14110:	03813083          	ld	ra,56(sp)
   14114:	03013403          	ld	s0,48(sp)
   14118:	02813483          	ld	s1,40(sp)
   1411c:	02013903          	ld	s2,32(sp)
   14120:	01813983          	ld	s3,24(sp)
   14124:	04010113          	addi	sp,sp,64
   14128:	00008067          	ret

000000000001412c <ecmp>:
   1412c:	01255783          	lhu	a5,18(a0)
   14130:	fa010113          	addi	sp,sp,-96
   14134:	04813823          	sd	s0,80(sp)
   14138:	fff7c793          	not	a5,a5
   1413c:	04913423          	sd	s1,72(sp)
   14140:	04113c23          	sd	ra,88(sp)
   14144:	03179713          	slli	a4,a5,0x31
   14148:	00050493          	mv	s1,a0
   1414c:	00058413          	mv	s0,a1
   14150:	00071663          	bnez	a4,1415c <ecmp+0x30>
   14154:	e2dff0ef          	jal	ra,13f80 <eisnan.part.0>
   14158:	08051263          	bnez	a0,141dc <ecmp+0xb0>
   1415c:	01245783          	lhu	a5,18(s0)
   14160:	fff7c793          	not	a5,a5
   14164:	03179713          	slli	a4,a5,0x31
   14168:	06070463          	beqz	a4,141d0 <ecmp+0xa4>
   1416c:	00010593          	mv	a1,sp
   14170:	00048513          	mv	a0,s1
   14174:	ebdff0ef          	jal	ra,14030 <emovi>
   14178:	02010593          	addi	a1,sp,32
   1417c:	00040513          	mv	a0,s0
   14180:	eb1ff0ef          	jal	ra,14030 <emovi>
   14184:	00015583          	lhu	a1,0(sp)
   14188:	02015783          	lhu	a5,32(sp)
   1418c:	04b78c63          	beq	a5,a1,141e4 <ecmp+0xb8>
   14190:	00210793          	addi	a5,sp,2
   14194:	02210713          	addi	a4,sp,34
   14198:	01810613          	addi	a2,sp,24
   1419c:	0007d683          	lhu	a3,0(a5)
   141a0:	00278793          	addi	a5,a5,2
   141a4:	08069663          	bnez	a3,14230 <ecmp+0x104>
   141a8:	00075683          	lhu	a3,0(a4)
   141ac:	00270713          	addi	a4,a4,2
   141b0:	08069063          	bnez	a3,14230 <ecmp+0x104>
   141b4:	fec794e3          	bne	a5,a2,1419c <ecmp+0x70>
   141b8:	00000513          	li	a0,0
   141bc:	05813083          	ld	ra,88(sp)
   141c0:	05013403          	ld	s0,80(sp)
   141c4:	04813483          	ld	s1,72(sp)
   141c8:	06010113          	addi	sp,sp,96
   141cc:	00008067          	ret
   141d0:	00040513          	mv	a0,s0
   141d4:	dadff0ef          	jal	ra,13f80 <eisnan.part.0>
   141d8:	f8050ae3          	beqz	a0,1416c <ecmp+0x40>
   141dc:	ffe00513          	li	a0,-2
   141e0:	fddff06f          	j	141bc <ecmp+0x90>
   141e4:	00100513          	li	a0,1
   141e8:	04059c63          	bnez	a1,14240 <ecmp+0x114>
   141ec:	00215603          	lhu	a2,2(sp)
   141f0:	02215683          	lhu	a3,34(sp)
   141f4:	00210713          	addi	a4,sp,2
   141f8:	02210793          	addi	a5,sp,34
   141fc:	03810593          	addi	a1,sp,56
   14200:	00278793          	addi	a5,a5,2
   14204:	00270713          	addi	a4,a4,2
   14208:	00d61e63          	bne	a2,a3,14224 <ecmp+0xf8>
   1420c:	fab786e3          	beq	a5,a1,141b8 <ecmp+0x8c>
   14210:	00075603          	lhu	a2,0(a4)
   14214:	0007d683          	lhu	a3,0(a5)
   14218:	00270713          	addi	a4,a4,2
   1421c:	00278793          	addi	a5,a5,2
   14220:	fed606e3          	beq	a2,a3,1420c <ecmp+0xe0>
   14224:	f8c6ece3          	bltu	a3,a2,141bc <ecmp+0x90>
   14228:	40a0053b          	negw	a0,a0
   1422c:	f91ff06f          	j	141bc <ecmp+0x90>
   14230:	00100513          	li	a0,1
   14234:	f80584e3          	beqz	a1,141bc <ecmp+0x90>
   14238:	fff00513          	li	a0,-1
   1423c:	f81ff06f          	j	141bc <ecmp+0x90>
   14240:	fff00513          	li	a0,-1
   14244:	fa9ff06f          	j	141ec <ecmp+0xc0>

0000000000014248 <eisinf.part.0>:
   14248:	ff010113          	addi	sp,sp,-16
   1424c:	00113423          	sd	ra,8(sp)
   14250:	d31ff0ef          	jal	ra,13f80 <eisnan.part.0>
   14254:	00813083          	ld	ra,8(sp)
   14258:	00153513          	seqz	a0,a0
   1425c:	01010113          	addi	sp,sp,16
   14260:	00008067          	ret

0000000000014264 <eshift.part.0>:
   14264:	fd010113          	addi	sp,sp,-48
   14268:	02813023          	sd	s0,32(sp)
   1426c:	00913c23          	sd	s1,24(sp)
   14270:	02113423          	sd	ra,40(sp)
   14274:	01213823          	sd	s2,16(sp)
   14278:	01313423          	sd	s3,8(sp)
   1427c:	00058493          	mv	s1,a1
   14280:	00050413          	mv	s0,a0
   14284:	0a05c463          	bltz	a1,1432c <eshift.part.0+0xc8>
   14288:	00f00793          	li	a5,15
   1428c:	00058613          	mv	a2,a1
   14290:	00450513          	addi	a0,a0,4
   14294:	01840693          	addi	a3,s0,24
   14298:	00f00593          	li	a1,15
   1429c:	0297d463          	bge	a5,s1,142c4 <eshift.part.0+0x60>
   142a0:	00050793          	mv	a5,a0
   142a4:	0027d703          	lhu	a4,2(a5)
   142a8:	00278793          	addi	a5,a5,2
   142ac:	fee79f23          	sh	a4,-2(a5)
   142b0:	fed79ae3          	bne	a5,a3,142a4 <eshift.part.0+0x40>
   142b4:	00041c23          	sh	zero,24(s0)
   142b8:	ff06061b          	addiw	a2,a2,-16
   142bc:	fec5c2e3          	blt	a1,a2,142a0 <eshift.part.0+0x3c>
   142c0:	00f4f493          	andi	s1,s1,15
   142c4:	00700793          	li	a5,7
   142c8:	0297d863          	bge	a5,s1,142f8 <eshift.part.0+0x94>
   142cc:	01840713          	addi	a4,s0,24
   142d0:	00240593          	addi	a1,s0,2
   142d4:	00000793          	li	a5,0
   142d8:	00075683          	lhu	a3,0(a4)
   142dc:	ffe70713          	addi	a4,a4,-2
   142e0:	00869613          	slli	a2,a3,0x8
   142e4:	00c7e7b3          	or	a5,a5,a2
   142e8:	00f71123          	sh	a5,2(a4)
   142ec:	0086d793          	srli	a5,a3,0x8
   142f0:	feb714e3          	bne	a4,a1,142d8 <eshift.part.0+0x74>
   142f4:	ff84849b          	addiw	s1,s1,-8
   142f8:	00048a63          	beqz	s1,1430c <eshift.part.0+0xa8>
   142fc:	fff4849b          	addiw	s1,s1,-1
   14300:	00040513          	mv	a0,s0
   14304:	b71ff0ef          	jal	ra,13e74 <eshup1>
   14308:	fe049ae3          	bnez	s1,142fc <eshift.part.0+0x98>
   1430c:	00000513          	li	a0,0
   14310:	02813083          	ld	ra,40(sp)
   14314:	02013403          	ld	s0,32(sp)
   14318:	01813483          	ld	s1,24(sp)
   1431c:	01013903          	ld	s2,16(sp)
   14320:	00813983          	ld	s3,8(sp)
   14324:	03010113          	addi	sp,sp,48
   14328:	00008067          	ret
   1432c:	ff100793          	li	a5,-15
   14330:	40b0093b          	negw	s2,a1
   14334:	12f5dc63          	bge	a1,a5,1446c <eshift.part.0+0x208>
   14338:	01850593          	addi	a1,a0,24
   1433c:	00000993          	li	s3,0
   14340:	00450693          	addi	a3,a0,4
   14344:	00f00613          	li	a2,15
   14348:	01845703          	lhu	a4,24(s0)
   1434c:	00058793          	mv	a5,a1
   14350:	00e9e9b3          	or	s3,s3,a4
   14354:	ffe7d703          	lhu	a4,-2(a5)
   14358:	ffe78793          	addi	a5,a5,-2
   1435c:	00e79123          	sh	a4,2(a5)
   14360:	fed79ae3          	bne	a5,a3,14354 <eshift.part.0+0xf0>
   14364:	00041223          	sh	zero,4(s0)
   14368:	ff09091b          	addiw	s2,s2,-16
   1436c:	fd264ee3          	blt	a2,s2,14348 <eshift.part.0+0xe4>
   14370:	ff000793          	li	a5,-16
   14374:	ff100713          	li	a4,-15
   14378:	409787bb          	subw	a5,a5,s1
   1437c:	00000913          	li	s2,0
   14380:	0ae4c463          	blt	s1,a4,14428 <eshift.part.0+0x1c4>
   14384:	00f9093b          	addw	s2,s2,a5
   14388:	00700793          	li	a5,7
   1438c:	0527d663          	bge	a5,s2,143d8 <eshift.part.0+0x174>
   14390:	0109999b          	slliw	s3,s3,0x10
   14394:	4109d99b          	sraiw	s3,s3,0x10
   14398:	01844783          	lbu	a5,24(s0)
   1439c:	01a40593          	addi	a1,s0,26
   143a0:	00f9e9b3          	or	s3,s3,a5
   143a4:	03099993          	slli	s3,s3,0x30
   143a8:	0309d993          	srli	s3,s3,0x30
   143ac:	00000793          	li	a5,0
   143b0:	0006d603          	lhu	a2,0(a3)
   143b4:	00268693          	addi	a3,a3,2
   143b8:	0086571b          	srliw	a4,a2,0x8
   143bc:	00e7e733          	or	a4,a5,a4
   143c0:	0086179b          	slliw	a5,a2,0x8
   143c4:	03079793          	slli	a5,a5,0x30
   143c8:	fee69f23          	sh	a4,-2(a3)
   143cc:	0307d793          	srli	a5,a5,0x30
   143d0:	feb690e3          	bne	a3,a1,143b0 <eshift.part.0+0x14c>
   143d4:	ff89091b          	addiw	s2,s2,-8
   143d8:	06090c63          	beqz	s2,14450 <eshift.part.0+0x1ec>
   143dc:	01845783          	lhu	a5,24(s0)
   143e0:	fff9091b          	addiw	s2,s2,-1
   143e4:	00040513          	mv	a0,s0
   143e8:	0017f793          	andi	a5,a5,1
   143ec:	0137e9b3          	or	s3,a5,s3
   143f0:	a1dff0ef          	jal	ra,13e0c <eshdn1>
   143f4:	fe0914e3          	bnez	s2,143dc <eshift.part.0+0x178>
   143f8:	0109979b          	slliw	a5,s3,0x10
   143fc:	4107d79b          	sraiw	a5,a5,0x10
   14400:	04079063          	bnez	a5,14440 <eshift.part.0+0x1dc>
   14404:	03099513          	slli	a0,s3,0x30
   14408:	03055513          	srli	a0,a0,0x30
   1440c:	02813083          	ld	ra,40(sp)
   14410:	02013403          	ld	s0,32(sp)
   14414:	01813483          	ld	s1,24(sp)
   14418:	01013903          	ld	s2,16(sp)
   1441c:	00813983          	ld	s3,8(sp)
   14420:	03010113          	addi	sp,sp,48
   14424:	00008067          	ret
   14428:	ff07f913          	andi	s2,a5,-16
   1442c:	4120093b          	negw	s2,s2
   14430:	00f9093b          	addw	s2,s2,a5
   14434:	00700793          	li	a5,7
   14438:	fb27d0e3          	bge	a5,s2,143d8 <eshift.part.0+0x174>
   1443c:	f55ff06f          	j	14390 <eshift.part.0+0x12c>
   14440:	00100993          	li	s3,1
   14444:	03099513          	slli	a0,s3,0x30
   14448:	03055513          	srli	a0,a0,0x30
   1444c:	fc1ff06f          	j	1440c <eshift.part.0+0x1a8>
   14450:	00098513          	mv	a0,s3
   14454:	00099863          	bnez	s3,14464 <eshift.part.0+0x200>
   14458:	03051513          	slli	a0,a0,0x30
   1445c:	03055513          	srli	a0,a0,0x30
   14460:	eb1ff06f          	j	14310 <eshift.part.0+0xac>
   14464:	00100513          	li	a0,1
   14468:	ff1ff06f          	j	14458 <eshift.part.0+0x1f4>
   1446c:	ff900793          	li	a5,-7
   14470:	00000993          	li	s3,0
   14474:	f6f5d4e3          	bge	a1,a5,143dc <eshift.part.0+0x178>
   14478:	00440693          	addi	a3,s0,4
   1447c:	f1dff06f          	j	14398 <eshift.part.0+0x134>

0000000000014480 <enormlz>:
   14480:	00455783          	lhu	a5,4(a0)
   14484:	fe010113          	addi	sp,sp,-32
   14488:	00913423          	sd	s1,8(sp)
   1448c:	00113c23          	sd	ra,24(sp)
   14490:	00813823          	sd	s0,16(sp)
   14494:	01213023          	sd	s2,0(sp)
   14498:	00050493          	mv	s1,a0
   1449c:	0e079063          	bnez	a5,1457c <enormlz+0xfc>
   144a0:	00655703          	lhu	a4,6(a0)
   144a4:	00000413          	li	s0,0
   144a8:	0107179b          	slliw	a5,a4,0x10
   144ac:	4107d79b          	sraiw	a5,a5,0x10
   144b0:	02079693          	slli	a3,a5,0x20
   144b4:	0a06c663          	bltz	a3,14560 <enormlz+0xe0>
   144b8:	01a50693          	addi	a3,a0,26
   144bc:	0a000613          	li	a2,160
   144c0:	02071863          	bnez	a4,144f0 <enormlz+0x70>
   144c4:	00648793          	addi	a5,s1,6
   144c8:	0080006f          	j	144d0 <enormlz+0x50>
   144cc:	0007d703          	lhu	a4,0(a5)
   144d0:	00278793          	addi	a5,a5,2
   144d4:	fee79e23          	sh	a4,-4(a5)
   144d8:	fef69ae3          	bne	a3,a5,144cc <enormlz+0x4c>
   144dc:	00049c23          	sh	zero,24(s1)
   144e0:	0104041b          	addiw	s0,s0,16
   144e4:	06c40e63          	beq	s0,a2,14560 <enormlz+0xe0>
   144e8:	0064d703          	lhu	a4,6(s1)
   144ec:	fc070ce3          	beqz	a4,144c4 <enormlz+0x44>
   144f0:	f0077793          	andi	a5,a4,-256
   144f4:	04079063          	bnez	a5,14534 <enormlz+0xb4>
   144f8:	01848513          	addi	a0,s1,24
   144fc:	00248593          	addi	a1,s1,2
   14500:	00000793          	li	a5,0
   14504:	00050713          	mv	a4,a0
   14508:	00075683          	lhu	a3,0(a4)
   1450c:	ffe70713          	addi	a4,a4,-2
   14510:	00869613          	slli	a2,a3,0x8
   14514:	00c7e7b3          	or	a5,a5,a2
   14518:	00f71123          	sh	a5,2(a4)
   1451c:	0086d793          	srli	a5,a3,0x8
   14520:	fee594e3          	bne	a1,a4,14508 <enormlz+0x88>
   14524:	0064d703          	lhu	a4,6(s1)
   14528:	0084041b          	addiw	s0,s0,8
   1452c:	f0077793          	andi	a5,a4,-256
   14530:	fc0788e3          	beqz	a5,14500 <enormlz+0x80>
   14534:	0a000913          	li	s2,160
   14538:	0140006f          	j	1454c <enormlz+0xcc>
   1453c:	0014041b          	addiw	s0,s0,1
   14540:	935ff0ef          	jal	ra,13e74 <eshup1>
   14544:	00894e63          	blt	s2,s0,14560 <enormlz+0xe0>
   14548:	0064d703          	lhu	a4,6(s1)
   1454c:	0107171b          	slliw	a4,a4,0x10
   14550:	4107571b          	sraiw	a4,a4,0x10
   14554:	02071793          	slli	a5,a4,0x20
   14558:	00048513          	mv	a0,s1
   1455c:	fe07d0e3          	bgez	a5,1453c <enormlz+0xbc>
   14560:	01813083          	ld	ra,24(sp)
   14564:	00040513          	mv	a0,s0
   14568:	01013403          	ld	s0,16(sp)
   1456c:	00813483          	ld	s1,8(sp)
   14570:	00013903          	ld	s2,0(sp)
   14574:	02010113          	addi	sp,sp,32
   14578:	00008067          	ret
   1457c:	f007f713          	andi	a4,a5,-256
   14580:	00000413          	li	s0,0
   14584:	04071063          	bnez	a4,145c4 <enormlz+0x144>
   14588:	f6f00913          	li	s2,-145
   1458c:	0140006f          	j	145a0 <enormlz+0x120>
   14590:	fff4041b          	addiw	s0,s0,-1
   14594:	879ff0ef          	jal	ra,13e0c <eshdn1>
   14598:	fd2404e3          	beq	s0,s2,14560 <enormlz+0xe0>
   1459c:	0044d783          	lhu	a5,4(s1)
   145a0:	00048513          	mv	a0,s1
   145a4:	fe0796e3          	bnez	a5,14590 <enormlz+0x110>
   145a8:	01813083          	ld	ra,24(sp)
   145ac:	00040513          	mv	a0,s0
   145b0:	01013403          	ld	s0,16(sp)
   145b4:	00813483          	ld	s1,8(sp)
   145b8:	00013903          	ld	s2,0(sp)
   145bc:	02010113          	addi	sp,sp,32
   145c0:	00008067          	ret
   145c4:	00450693          	addi	a3,a0,4
   145c8:	01a50593          	addi	a1,a0,26
   145cc:	00000713          	li	a4,0
   145d0:	0080006f          	j	145d8 <enormlz+0x158>
   145d4:	0006d783          	lhu	a5,0(a3)
   145d8:	0087d61b          	srliw	a2,a5,0x8
   145dc:	00c76733          	or	a4,a4,a2
   145e0:	0087979b          	slliw	a5,a5,0x8
   145e4:	00e69023          	sh	a4,0(a3)
   145e8:	03079713          	slli	a4,a5,0x30
   145ec:	00268693          	addi	a3,a3,2
   145f0:	03075713          	srli	a4,a4,0x30
   145f4:	feb690e3          	bne	a3,a1,145d4 <enormlz+0x154>
   145f8:	0044d783          	lhu	a5,4(s1)
   145fc:	ff800413          	li	s0,-8
   14600:	f89ff06f          	j	14588 <enormlz+0x108>

0000000000014604 <emdnorm>:
   14604:	fc010113          	addi	sp,sp,-64
   14608:	02813823          	sd	s0,48(sp)
   1460c:	02913423          	sd	s1,40(sp)
   14610:	03213023          	sd	s2,32(sp)
   14614:	01313c23          	sd	s3,24(sp)
   14618:	01413823          	sd	s4,16(sp)
   1461c:	01513423          	sd	s5,8(sp)
   14620:	00068913          	mv	s2,a3
   14624:	00078493          	mv	s1,a5
   14628:	02113c23          	sd	ra,56(sp)
   1462c:	00050413          	mv	s0,a0
   14630:	00058993          	mv	s3,a1
   14634:	00060a13          	mv	s4,a2
   14638:	00070a93          	mv	s5,a4
   1463c:	e45ff0ef          	jal	ra,14480 <enormlz>
   14640:	09000793          	li	a5,144
   14644:	40a90933          	sub	s2,s2,a0
   14648:	18a7dc63          	bge	a5,a0,147e0 <emdnorm+0x1dc>
   1464c:	000087b7          	lui	a5,0x8
   14650:	ffe78793          	addi	a5,a5,-2 # 7ffe <main-0x80b2>
   14654:	2127dc63          	bge	a5,s2,1486c <emdnorm+0x268>
   14658:	1e0a8663          	beqz	s5,14844 <emdnorm+0x240>
   1465c:	0044a503          	lw	a0,4(s1)
   14660:	0004a783          	lw	a5,0(s1)
   14664:	06a78c63          	beq	a5,a0,146dc <emdnorm+0xd8>
   14668:	01a48713          	addi	a4,s1,26
   1466c:	03448793          	addi	a5,s1,52
   14670:	00270713          	addi	a4,a4,2
   14674:	fe071f23          	sh	zero,-2(a4)
   14678:	fef71ce3          	bne	a4,a5,14670 <emdnorm+0x6c>
   1467c:	03800793          	li	a5,56
   14680:	34f50e63          	beq	a0,a5,149dc <emdnorm+0x3d8>
   14684:	18a7d063          	bge	a5,a0,14804 <emdnorm+0x200>
   14688:	04000793          	li	a5,64
   1468c:	30f50e63          	beq	a0,a5,149a8 <emdnorm+0x3a4>
   14690:	07100793          	li	a5,113
   14694:	36f51063          	bne	a0,a5,149f4 <emdnorm+0x3f0>
   14698:	00a00793          	li	a5,10
   1469c:	40008737          	lui	a4,0x40008
   146a0:	fff70713          	addi	a4,a4,-1 # 40007fff <__BSS_END__+0x3ffe4027>
   146a4:	02079793          	slli	a5,a5,0x20
   146a8:	00a78793          	addi	a5,a5,10
   146ac:	00e4aa23          	sw	a4,20(s1)
   146b0:	ffff8737          	lui	a4,0xffff8
   146b4:	00e49c23          	sh	a4,24(s1)
   146b8:	00f4b423          	sd	a5,8(s1)
   146bc:	00008737          	lui	a4,0x8
   146c0:	00a00793          	li	a5,10
   146c4:	00878793          	addi	a5,a5,8
   146c8:	00179793          	slli	a5,a5,0x1
   146cc:	00f487b3          	add	a5,s1,a5
   146d0:	00e79523          	sh	a4,10(a5)
   146d4:	00a4a023          	sw	a0,0(s1)
   146d8:	1d205863          	blez	s2,148a8 <emdnorm+0x2a4>
   146dc:	0084a683          	lw	a3,8(s1)
   146e0:	0144d603          	lhu	a2,20(s1)
   146e4:	08f00793          	li	a5,143
   146e8:	00169713          	slli	a4,a3,0x1
   146ec:	00e40833          	add	a6,s0,a4
   146f0:	00085883          	lhu	a7,0(a6) # ffffffffffff8000 <__BSS_END__+0xfffffffffffd4028>
   146f4:	00c8f5b3          	and	a1,a7,a2
   146f8:	04a7c863          	blt	a5,a0,14748 <emdnorm+0x144>
   146fc:	00b00793          	li	a5,11
   14700:	04d7c463          	blt	a5,a3,14748 <emdnorm+0x144>
   14704:	40d787bb          	subw	a5,a5,a3
   14708:	02079793          	slli	a5,a5,0x20
   1470c:	0207d793          	srli	a5,a5,0x20
   14710:	00d787b3          	add	a5,a5,a3
   14714:	00179693          	slli	a3,a5,0x1
   14718:	00270713          	addi	a4,a4,2 # 8002 <main-0x80ae>
   1471c:	00440793          	addi	a5,s0,4
   14720:	00e40733          	add	a4,s0,a4
   14724:	00f687b3          	add	a5,a3,a5
   14728:	00075683          	lhu	a3,0(a4)
   1472c:	00068463          	beqz	a3,14734 <emdnorm+0x130>
   14730:	0015e593          	ori	a1,a1,1
   14734:	00071023          	sh	zero,0(a4)
   14738:	00270713          	addi	a4,a4,2
   1473c:	fee796e3          	bne	a5,a4,14728 <emdnorm+0x124>
   14740:	00085883          	lhu	a7,0(a6)
   14744:	0144d603          	lhu	a2,20(s1)
   14748:	fff64613          	not	a2,a2
   1474c:	01167633          	and	a2,a2,a7
   14750:	00c81023          	sh	a2,0(a6)
   14754:	0164d783          	lhu	a5,22(s1)
   14758:	00b7f733          	and	a4,a5,a1
   1475c:	04070063          	beqz	a4,1479c <emdnorm+0x198>
   14760:	1ab78663          	beq	a5,a1,1490c <emdnorm+0x308>
   14764:	03248613          	addi	a2,s1,50
   14768:	01840693          	addi	a3,s0,24
   1476c:	01c48493          	addi	s1,s1,28
   14770:	00000713          	li	a4,0
   14774:	00065783          	lhu	a5,0(a2)
   14778:	0006d583          	lhu	a1,0(a3)
   1477c:	ffe68693          	addi	a3,a3,-2
   14780:	ffe60613          	addi	a2,a2,-2
   14784:	00b787b3          	add	a5,a5,a1
   14788:	00e787b3          	add	a5,a5,a4
   1478c:	0107d713          	srli	a4,a5,0x10
   14790:	00f69123          	sh	a5,2(a3)
   14794:	00177713          	andi	a4,a4,1
   14798:	fc961ee3          	bne	a2,s1,14774 <emdnorm+0x170>
   1479c:	19205a63          	blez	s2,14930 <emdnorm+0x32c>
   147a0:	00445783          	lhu	a5,4(s0)
   147a4:	14079063          	bnez	a5,148e4 <emdnorm+0x2e0>
   147a8:	000087b7          	lui	a5,0x8
   147ac:	00041c23          	sh	zero,24(s0)
   147b0:	ffe78793          	addi	a5,a5,-2 # 7ffe <main-0x80b2>
   147b4:	0927ca63          	blt	a5,s2,14848 <emdnorm+0x244>
   147b8:	01241123          	sh	s2,2(s0)
   147bc:	03813083          	ld	ra,56(sp)
   147c0:	03013403          	ld	s0,48(sp)
   147c4:	02813483          	ld	s1,40(sp)
   147c8:	02013903          	ld	s2,32(sp)
   147cc:	01813983          	ld	s3,24(sp)
   147d0:	01013a03          	ld	s4,16(sp)
   147d4:	00813a83          	ld	s5,8(sp)
   147d8:	04010113          	addi	sp,sp,64
   147dc:	00008067          	ret
   147e0:	0e095663          	bgez	s2,148cc <emdnorm+0x2c8>
   147e4:	f7000793          	li	a5,-144
   147e8:	08f95e63          	bge	s2,a5,14884 <emdnorm+0x280>
   147ec:	00240793          	addi	a5,s0,2
   147f0:	01a40413          	addi	s0,s0,26
   147f4:	00278793          	addi	a5,a5,2
   147f8:	fe079f23          	sh	zero,-2(a5)
   147fc:	fe879ce3          	bne	a5,s0,147f4 <emdnorm+0x1f0>
   14800:	fbdff06f          	j	147bc <emdnorm+0x1b8>
   14804:	01800793          	li	a5,24
   14808:	16f50a63          	beq	a0,a5,1497c <emdnorm+0x378>
   1480c:	03500793          	li	a5,53
   14810:	1ef51263          	bne	a0,a5,149f4 <emdnorm+0x3f0>
   14814:	040006b7          	lui	a3,0x4000
   14818:	00001737          	lui	a4,0x1
   1481c:	7ff68693          	addi	a3,a3,2047 # 40007ff <__BSS_END__+0x3fdc827>
   14820:	00600793          	li	a5,6
   14824:	80070713          	addi	a4,a4,-2048 # 800 <main-0xf8b0>
   14828:	00d4aa23          	sw	a3,20(s1)
   1482c:	02079793          	slli	a5,a5,0x20
   14830:	00678793          	addi	a5,a5,6
   14834:	00f4b423          	sd	a5,8(s1)
   14838:	00e49c23          	sh	a4,24(s1)
   1483c:	00600793          	li	a5,6
   14840:	e85ff06f          	j	146c4 <emdnorm+0xc0>
   14844:	00041c23          	sh	zero,24(s0)
   14848:	ffff87b7          	lui	a5,0xffff8
   1484c:	fff7c793          	not	a5,a5
   14850:	00f41123          	sh	a5,2(s0)
   14854:	00440793          	addi	a5,s0,4
   14858:	01840413          	addi	s0,s0,24
   1485c:	00079023          	sh	zero,0(a5) # ffffffffffff8000 <__BSS_END__+0xfffffffffffd4028>
   14860:	00278793          	addi	a5,a5,2
   14864:	fef41ce3          	bne	s0,a5,1485c <emdnorm+0x258>
   14868:	f55ff06f          	j	147bc <emdnorm+0x1b8>
   1486c:	00240793          	addi	a5,s0,2
   14870:	01a40413          	addi	s0,s0,26
   14874:	00278793          	addi	a5,a5,2
   14878:	fe079f23          	sh	zero,-2(a5)
   1487c:	fe879ce3          	bne	a5,s0,14874 <emdnorm+0x270>
   14880:	f3dff06f          	j	147bc <emdnorm+0x1b8>
   14884:	0009059b          	sext.w	a1,s2
   14888:	00040513          	mv	a0,s0
   1488c:	9d9ff0ef          	jal	ra,14264 <eshift.part.0>
   14890:	00050463          	beqz	a0,14898 <emdnorm+0x294>
   14894:	00100993          	li	s3,1
   14898:	0c0a8c63          	beqz	s5,14970 <emdnorm+0x36c>
   1489c:	0044a503          	lw	a0,4(s1)
   148a0:	0004a783          	lw	a5,0(s1)
   148a4:	dca792e3          	bne	a5,a0,14668 <emdnorm+0x64>
   148a8:	09000793          	li	a5,144
   148ac:	0af50463          	beq	a0,a5,14954 <emdnorm+0x350>
   148b0:	01845783          	lhu	a5,24(s0)
   148b4:	00040513          	mv	a0,s0
   148b8:	0017f793          	andi	a5,a5,1
   148bc:	0137e9b3          	or	s3,a5,s3
   148c0:	d4cff0ef          	jal	ra,13e0c <eshdn1>
   148c4:	0044a503          	lw	a0,4(s1)
   148c8:	e15ff06f          	j	146dc <emdnorm+0xd8>
   148cc:	ec0a8ee3          	beqz	s5,147a8 <emdnorm+0x1a4>
   148d0:	0044a503          	lw	a0,4(s1)
   148d4:	0004a783          	lw	a5,0(s1)
   148d8:	d8a798e3          	bne	a5,a0,14668 <emdnorm+0x64>
   148dc:	e12040e3          	bgtz	s2,146dc <emdnorm+0xd8>
   148e0:	fc9ff06f          	j	148a8 <emdnorm+0x2a4>
   148e4:	00040513          	mv	a0,s0
   148e8:	d24ff0ef          	jal	ra,13e0c <eshdn1>
   148ec:	000087b7          	lui	a5,0x8
   148f0:	00190913          	addi	s2,s2,1
   148f4:	00041c23          	sh	zero,24(s0)
   148f8:	ffe78793          	addi	a5,a5,-2 # 7ffe <main-0x80b2>
   148fc:	f527c6e3          	blt	a5,s2,14848 <emdnorm+0x244>
   14900:	ea095ce3          	bgez	s2,147b8 <emdnorm+0x1b4>
   14904:	00041123          	sh	zero,2(s0)
   14908:	eb5ff06f          	j	147bc <emdnorm+0x1b8>
   1490c:	0c099463          	bnez	s3,149d4 <emdnorm+0x3d0>
   14910:	00c4a783          	lw	a5,12(s1)
   14914:	0184d703          	lhu	a4,24(s1)
   14918:	00179793          	slli	a5,a5,0x1
   1491c:	00f407b3          	add	a5,s0,a5
   14920:	0007d783          	lhu	a5,0(a5)
   14924:	00e7f7b3          	and	a5,a5,a4
   14928:	e2079ee3          	bnez	a5,14764 <emdnorm+0x160>
   1492c:	e7204ae3          	bgtz	s2,147a0 <emdnorm+0x19c>
   14930:	09000793          	li	a5,144
   14934:	00f50663          	beq	a0,a5,14940 <emdnorm+0x33c>
   14938:	00040513          	mv	a0,s0
   1493c:	d38ff0ef          	jal	ra,13e74 <eshup1>
   14940:	00445783          	lhu	a5,4(s0)
   14944:	fa0790e3          	bnez	a5,148e4 <emdnorm+0x2e0>
   14948:	00041c23          	sh	zero,24(s0)
   1494c:	fa094ce3          	bltz	s2,14904 <emdnorm+0x300>
   14950:	e69ff06f          	j	147b8 <emdnorm+0x1b4>
   14954:	0084a803          	lw	a6,8(s1)
   14958:	0144d603          	lhu	a2,20(s1)
   1495c:	00181813          	slli	a6,a6,0x1
   14960:	01040833          	add	a6,s0,a6
   14964:	00085883          	lhu	a7,0(a6)
   14968:	011675b3          	and	a1,a2,a7
   1496c:	dddff06f          	j	14748 <emdnorm+0x144>
   14970:	00041c23          	sh	zero,24(s0)
   14974:	00041123          	sh	zero,2(s0)
   14978:	e45ff06f          	j	147bc <emdnorm+0x1b8>
   1497c:	00400793          	li	a5,4
   14980:	00800737          	lui	a4,0x800
   14984:	0ff70713          	addi	a4,a4,255 # 8000ff <__BSS_END__+0x7dc127>
   14988:	02079793          	slli	a5,a5,0x20
   1498c:	00478793          	addi	a5,a5,4
   14990:	00e4aa23          	sw	a4,20(s1)
   14994:	10000713          	li	a4,256
   14998:	00f4b423          	sd	a5,8(s1)
   1499c:	00e49c23          	sh	a4,24(s1)
   149a0:	00400793          	li	a5,4
   149a4:	d21ff06f          	j	146c4 <emdnorm+0xc0>
   149a8:	00300793          	li	a5,3
   149ac:	80010737          	lui	a4,0x80010
   149b0:	fff70713          	addi	a4,a4,-1 # ffffffff8000ffff <__BSS_END__+0xffffffff7ffec027>
   149b4:	02179793          	slli	a5,a5,0x21
   149b8:	00778793          	addi	a5,a5,7
   149bc:	00e4aa23          	sw	a4,20(s1)
   149c0:	00100713          	li	a4,1
   149c4:	00f4b423          	sd	a5,8(s1)
   149c8:	00e49c23          	sh	a4,24(s1)
   149cc:	00600793          	li	a5,6
   149d0:	cf5ff06f          	j	146c4 <emdnorm+0xc0>
   149d4:	d80a08e3          	beqz	s4,14764 <emdnorm+0x160>
   149d8:	dc5ff06f          	j	1479c <emdnorm+0x198>
   149dc:	00800737          	lui	a4,0x800
   149e0:	0ff70713          	addi	a4,a4,255 # 8000ff <__BSS_END__+0x7dc127>
   149e4:	00e4aa23          	sw	a4,20(s1)
   149e8:	00600793          	li	a5,6
   149ec:	10000713          	li	a4,256
   149f0:	e3dff06f          	j	1482c <emdnorm+0x228>
   149f4:	00b00793          	li	a5,11
   149f8:	80010737          	lui	a4,0x80010
   149fc:	fff70713          	addi	a4,a4,-1 # ffffffff8000ffff <__BSS_END__+0xffffffff7ffec027>
   14a00:	02079793          	slli	a5,a5,0x20
   14a04:	00c78793          	addi	a5,a5,12
   14a08:	00e4aa23          	sw	a4,20(s1)
   14a0c:	00100713          	li	a4,1
   14a10:	00f4b423          	sd	a5,8(s1)
   14a14:	00e49c23          	sh	a4,24(s1)
   14a18:	00b00793          	li	a5,11
   14a1c:	ca9ff06f          	j	146c4 <emdnorm+0xc0>

0000000000014a20 <eiremain>:
   14a20:	fa010113          	addi	sp,sp,-96
   14a24:	04913423          	sd	s1,72(sp)
   14a28:	03313c23          	sd	s3,56(sp)
   14a2c:	00058493          	mv	s1,a1
   14a30:	00255983          	lhu	s3,2(a0)
   14a34:	04113c23          	sd	ra,88(sp)
   14a38:	04813823          	sd	s0,80(sp)
   14a3c:	05213023          	sd	s2,64(sp)
   14a40:	03413823          	sd	s4,48(sp)
   14a44:	00060913          	mv	s2,a2
   14a48:	03513423          	sd	s5,40(sp)
   14a4c:	03613023          	sd	s6,32(sp)
   14a50:	01713c23          	sd	s7,24(sp)
   14a54:	01813823          	sd	s8,16(sp)
   14a58:	01913423          	sd	s9,8(sp)
   14a5c:	01a13023          	sd	s10,0(sp)
   14a60:	00050a13          	mv	s4,a0
   14a64:	a1dff0ef          	jal	ra,14480 <enormlz>
   14a68:	0024d403          	lhu	s0,2(s1)
   14a6c:	00050793          	mv	a5,a0
   14a70:	00048513          	mv	a0,s1
   14a74:	40f989b3          	sub	s3,s3,a5
   14a78:	03490a93          	addi	s5,s2,52
   14a7c:	a05ff0ef          	jal	ra,14480 <enormlz>
   14a80:	40a40433          	sub	s0,s0,a0
   14a84:	04e90713          	addi	a4,s2,78
   14a88:	000a8793          	mv	a5,s5
   14a8c:	00278793          	addi	a5,a5,2
   14a90:	fe079f23          	sh	zero,-2(a5)
   14a94:	fee79ce3          	bne	a5,a4,14a8c <eiremain+0x6c>
   14a98:	09344a63          	blt	s0,s3,14b2c <eiremain+0x10c>
   14a9c:	004a0b93          	addi	s7,s4,4
   14aa0:	00448b13          	addi	s6,s1,4
   14aa4:	fff98993          	addi	s3,s3,-1
   14aa8:	01aa0c93          	addi	s9,s4,26
   14aac:	00248c13          	addi	s8,s1,2
   14ab0:	000b0713          	mv	a4,s6
   14ab4:	000b8793          	mv	a5,s7
   14ab8:	0007d603          	lhu	a2,0(a5)
   14abc:	00075683          	lhu	a3,0(a4)
   14ac0:	00278793          	addi	a5,a5,2
   14ac4:	00270713          	addi	a4,a4,2
   14ac8:	0ad61a63          	bne	a2,a3,14b7c <eiremain+0x15c>
   14acc:	fefc96e3          	bne	s9,a5,14ab8 <eiremain+0x98>
   14ad0:	018a0613          	addi	a2,s4,24
   14ad4:	01848713          	addi	a4,s1,24
   14ad8:	00000693          	li	a3,0
   14adc:	00075783          	lhu	a5,0(a4)
   14ae0:	00065583          	lhu	a1,0(a2)
   14ae4:	ffe70713          	addi	a4,a4,-2
   14ae8:	40d787b3          	sub	a5,a5,a3
   14aec:	40b787b3          	sub	a5,a5,a1
   14af0:	0107d693          	srli	a3,a5,0x10
   14af4:	00f71123          	sh	a5,2(a4)
   14af8:	0016f693          	andi	a3,a3,1
   14afc:	ffe60613          	addi	a2,a2,-2
   14b00:	fcec1ee3          	bne	s8,a4,14adc <eiremain+0xbc>
   14b04:	00100d13          	li	s10,1
   14b08:	000a8513          	mv	a0,s5
   14b0c:	b68ff0ef          	jal	ra,13e74 <eshup1>
   14b10:	04c95783          	lhu	a5,76(s2)
   14b14:	fff40413          	addi	s0,s0,-1
   14b18:	00048513          	mv	a0,s1
   14b1c:	00fd6d33          	or	s10,s10,a5
   14b20:	05a91623          	sh	s10,76(s2)
   14b24:	b50ff0ef          	jal	ra,13e74 <eshup1>
   14b28:	f93414e3          	bne	s0,s3,14ab0 <eiremain+0x90>
   14b2c:	00040693          	mv	a3,s0
   14b30:	05013403          	ld	s0,80(sp)
   14b34:	05813083          	ld	ra,88(sp)
   14b38:	03813983          	ld	s3,56(sp)
   14b3c:	03013a03          	ld	s4,48(sp)
   14b40:	02813a83          	ld	s5,40(sp)
   14b44:	02013b03          	ld	s6,32(sp)
   14b48:	01813b83          	ld	s7,24(sp)
   14b4c:	01013c03          	ld	s8,16(sp)
   14b50:	00813c83          	ld	s9,8(sp)
   14b54:	00013d03          	ld	s10,0(sp)
   14b58:	00090793          	mv	a5,s2
   14b5c:	00048513          	mv	a0,s1
   14b60:	04013903          	ld	s2,64(sp)
   14b64:	04813483          	ld	s1,72(sp)
   14b68:	00000713          	li	a4,0
   14b6c:	00000613          	li	a2,0
   14b70:	00000593          	li	a1,0
   14b74:	06010113          	addi	sp,sp,96
   14b78:	a8dff06f          	j	14604 <emdnorm>
   14b7c:	00000d13          	li	s10,0
   14b80:	f8c6e4e3          	bltu	a3,a2,14b08 <eiremain+0xe8>
   14b84:	f4dff06f          	j	14ad0 <eiremain+0xb0>

0000000000014b88 <emovo.isra.0>:
   14b88:	00055703          	lhu	a4,0(a0)
   14b8c:	00255783          	lhu	a5,2(a0)
   14b90:	00070663          	beqz	a4,14b9c <emovo.isra.0+0x14>
   14b94:	00008737          	lui	a4,0x8
   14b98:	00e7e7b3          	or	a5,a5,a4
   14b9c:	00f59923          	sh	a5,18(a1)
   14ba0:	00255703          	lhu	a4,2(a0)
   14ba4:	000087b7          	lui	a5,0x8
   14ba8:	fff78793          	addi	a5,a5,-1 # 7fff <main-0x80b1>
   14bac:	02f70463          	beq	a4,a5,14bd4 <emovo.isra.0+0x4c>
   14bb0:	00650793          	addi	a5,a0,6
   14bb4:	01058593          	addi	a1,a1,16
   14bb8:	01850513          	addi	a0,a0,24
   14bbc:	0007d703          	lhu	a4,0(a5)
   14bc0:	00278793          	addi	a5,a5,2
   14bc4:	ffe58593          	addi	a1,a1,-2
   14bc8:	00e59123          	sh	a4,2(a1)
   14bcc:	fea798e3          	bne	a5,a0,14bbc <emovo.isra.0+0x34>
   14bd0:	00008067          	ret
   14bd4:	00650793          	addi	a5,a0,6
   14bd8:	01a50513          	addi	a0,a0,26
   14bdc:	0007d703          	lhu	a4,0(a5)
   14be0:	00278793          	addi	a5,a5,2
   14be4:	02071a63          	bnez	a4,14c18 <emovo.isra.0+0x90>
   14be8:	fea79ae3          	bne	a5,a0,14bdc <emovo.isra.0+0x54>
   14bec:	01258713          	addi	a4,a1,18
   14bf0:	00058793          	mv	a5,a1
   14bf4:	00278793          	addi	a5,a5,2
   14bf8:	fe079f23          	sh	zero,-2(a5)
   14bfc:	fef71ce3          	bne	a4,a5,14bf4 <emovo.isra.0+0x6c>
   14c00:	0125d783          	lhu	a5,18(a1)
   14c04:	00008737          	lui	a4,0x8
   14c08:	fff70713          	addi	a4,a4,-1 # 7fff <main-0x80b1>
   14c0c:	00e7e7b3          	or	a5,a5,a4
   14c10:	00f59923          	sh	a5,18(a1)
   14c14:	00008067          	ret
   14c18:	01058713          	addi	a4,a1,16
   14c1c:	00058793          	mv	a5,a1
   14c20:	00278793          	addi	a5,a5,2
   14c24:	fe079f23          	sh	zero,-2(a5)
   14c28:	fef71ce3          	bne	a4,a5,14c20 <emovo.isra.0+0x98>
   14c2c:	7fffc7b7          	lui	a5,0x7fffc
   14c30:	00f5a823          	sw	a5,16(a1)
   14c34:	00008067          	ret

0000000000014c38 <emul>:
   14c38:	f4010113          	addi	sp,sp,-192
   14c3c:	09613023          	sd	s6,128(sp)
   14c40:	01255b03          	lhu	s6,18(a0)
   14c44:	000087b7          	lui	a5,0x8
   14c48:	fff78793          	addi	a5,a5,-1 # 7fff <main-0x80b1>
   14c4c:	09413823          	sd	s4,144(sp)
   14c50:	0167fa33          	and	s4,a5,s6
   14c54:	030a1a13          	slli	s4,s4,0x30
   14c58:	0a813823          	sd	s0,176(sp)
   14c5c:	0a913423          	sd	s1,168(sp)
   14c60:	0b213023          	sd	s2,160(sp)
   14c64:	09313c23          	sd	s3,152(sp)
   14c68:	0a113c23          	sd	ra,184(sp)
   14c6c:	09513423          	sd	s5,136(sp)
   14c70:	07713c23          	sd	s7,120(sp)
   14c74:	07813823          	sd	s8,112(sp)
   14c78:	07913423          	sd	s9,104(sp)
   14c7c:	030a5a13          	srli	s4,s4,0x30
   14c80:	00050493          	mv	s1,a0
   14c84:	00058913          	mv	s2,a1
   14c88:	00060413          	mv	s0,a2
   14c8c:	00068993          	mv	s3,a3
   14c90:	10fa1263          	bne	s4,a5,14d94 <emul+0x15c>
   14c94:	aecff0ef          	jal	ra,13f80 <eisnan.part.0>
   14c98:	28051a63          	bnez	a0,14f2c <emul+0x2f4>
   14c9c:	01295a83          	lhu	s5,18(s2)
   14ca0:	015a77b3          	and	a5,s4,s5
   14ca4:	2b478263          	beq	a5,s4,14f48 <emul+0x310>
   14ca8:	00048513          	mv	a0,s1
   14cac:	d9cff0ef          	jal	ra,14248 <eisinf.part.0>
   14cb0:	2e050e63          	beqz	a0,14fac <emul+0x374>
   14cb4:	000215b7          	lui	a1,0x21
   14cb8:	1a858593          	addi	a1,a1,424 # 211a8 <ezero>
   14cbc:	00090513          	mv	a0,s2
   14cc0:	c6cff0ef          	jal	ra,1412c <ecmp>
   14cc4:	36050663          	beqz	a0,15030 <emul+0x3f8>
   14cc8:	01295a83          	lhu	s5,18(s2)
   14ccc:	000087b7          	lui	a5,0x8
   14cd0:	fff78793          	addi	a5,a5,-1 # 7fff <main-0x80b1>
   14cd4:	0157fab3          	and	s5,a5,s5
   14cd8:	030a9a93          	slli	s5,s5,0x30
   14cdc:	030ada93          	srli	s5,s5,0x30
   14ce0:	2cfa9463          	bne	s5,a5,14fa8 <emul+0x370>
   14ce4:	00090513          	mv	a0,s2
   14ce8:	d60ff0ef          	jal	ra,14248 <eisinf.part.0>
   14cec:	32051063          	bnez	a0,1500c <emul+0x3d4>
   14cf0:	0124d783          	lhu	a5,18(s1)
   14cf4:	00faf7b3          	and	a5,s5,a5
   14cf8:	0b579863          	bne	a5,s5,14da8 <emul+0x170>
   14cfc:	00048513          	mv	a0,s1
   14d00:	d48ff0ef          	jal	ra,14248 <eisinf.part.0>
   14d04:	00051863          	bnez	a0,14d14 <emul+0xdc>
   14d08:	00090513          	mv	a0,s2
   14d0c:	d3cff0ef          	jal	ra,14248 <eisinf.part.0>
   14d10:	08050c63          	beqz	a0,14da8 <emul+0x170>
   14d14:	00048513          	mv	a0,s1
   14d18:	ad8ff0ef          	jal	ra,13ff0 <eisneg>
   14d1c:	00050493          	mv	s1,a0
   14d20:	00090513          	mv	a0,s2
   14d24:	accff0ef          	jal	ra,13ff0 <eisneg>
   14d28:	40a48533          	sub	a0,s1,a0
   14d2c:	00a03533          	snez	a0,a0
   14d30:	00f51513          	slli	a0,a0,0xf
   14d34:	00a41923          	sh	a0,18(s0)
   14d38:	01240713          	addi	a4,s0,18
   14d3c:	00040793          	mv	a5,s0
   14d40:	00278793          	addi	a5,a5,2
   14d44:	fe079f23          	sh	zero,-2(a5)
   14d48:	fef71ce3          	bne	a4,a5,14d40 <emul+0x108>
   14d4c:	01245783          	lhu	a5,18(s0)
   14d50:	00008737          	lui	a4,0x8
   14d54:	fff70713          	addi	a4,a4,-1 # 7fff <main-0x80b1>
   14d58:	00e7e7b3          	or	a5,a5,a4
   14d5c:	00f41923          	sh	a5,18(s0)
   14d60:	0b813083          	ld	ra,184(sp)
   14d64:	0b013403          	ld	s0,176(sp)
   14d68:	0a813483          	ld	s1,168(sp)
   14d6c:	0a013903          	ld	s2,160(sp)
   14d70:	09813983          	ld	s3,152(sp)
   14d74:	09013a03          	ld	s4,144(sp)
   14d78:	08813a83          	ld	s5,136(sp)
   14d7c:	08013b03          	ld	s6,128(sp)
   14d80:	07813b83          	ld	s7,120(sp)
   14d84:	07013c03          	ld	s8,112(sp)
   14d88:	06813c83          	ld	s9,104(sp)
   14d8c:	0c010113          	addi	sp,sp,192
   14d90:	00008067          	ret
   14d94:	0125da83          	lhu	s5,18(a1)
   14d98:	0157f733          	and	a4,a5,s5
   14d9c:	03071713          	slli	a4,a4,0x30
   14da0:	03075713          	srli	a4,a4,0x30
   14da4:	04f70a63          	beq	a4,a5,14df8 <emul+0x1c0>
   14da8:	00048513          	mv	a0,s1
   14dac:	00010593          	mv	a1,sp
   14db0:	a80ff0ef          	jal	ra,14030 <emovi>
   14db4:	00090513          	mv	a0,s2
   14db8:	02010593          	addi	a1,sp,32
   14dbc:	a74ff0ef          	jal	ra,14030 <emovi>
   14dc0:	00215483          	lhu	s1,2(sp)
   14dc4:	02215903          	lhu	s2,34(sp)
   14dc8:	04049c63          	bnez	s1,14e20 <emul+0x1e8>
   14dcc:	00410793          	addi	a5,sp,4
   14dd0:	01810693          	addi	a3,sp,24
   14dd4:	20f68863          	beq	a3,a5,14fe4 <emul+0x3ac>
   14dd8:	0007d703          	lhu	a4,0(a5)
   14ddc:	00278793          	addi	a5,a5,2
   14de0:	fe070ae3          	beqz	a4,14dd4 <emul+0x19c>
   14de4:	00010513          	mv	a0,sp
   14de8:	e98ff0ef          	jal	ra,14480 <enormlz>
   14dec:	02215703          	lhu	a4,34(sp)
   14df0:	40a004b3          	neg	s1,a0
   14df4:	0300006f          	j	14e24 <emul+0x1ec>
   14df8:	00058513          	mv	a0,a1
   14dfc:	984ff0ef          	jal	ra,13f80 <eisnan.part.0>
   14e00:	ec0506e3          	beqz	a0,14ccc <emul+0x94>
   14e04:	01490713          	addi	a4,s2,20
   14e08:	00095783          	lhu	a5,0(s2)
   14e0c:	00290913          	addi	s2,s2,2
   14e10:	00240413          	addi	s0,s0,2
   14e14:	fef41f23          	sh	a5,-2(s0)
   14e18:	fee918e3          	bne	s2,a4,14e08 <emul+0x1d0>
   14e1c:	f45ff06f          	j	14d60 <emul+0x128>
   14e20:	00090713          	mv	a4,s2
   14e24:	00090a93          	mv	s5,s2
   14e28:	02410793          	addi	a5,sp,36
   14e2c:	03810693          	addi	a3,sp,56
   14e30:	02071263          	bnez	a4,14e54 <emul+0x21c>
   14e34:	1cf68263          	beq	a3,a5,14ff8 <emul+0x3c0>
   14e38:	0007d703          	lhu	a4,0(a5)
   14e3c:	00278793          	addi	a5,a5,2
   14e40:	fe070ae3          	beqz	a4,14e34 <emul+0x1fc>
   14e44:	02010513          	addi	a0,sp,32
   14e48:	e38ff0ef          	jal	ra,14480 <enormlz>
   14e4c:	02215703          	lhu	a4,34(sp)
   14e50:	40a90ab3          	sub	s5,s2,a0
   14e54:	02015783          	lhu	a5,32(sp)
   14e58:	03898c13          	addi	s8,s3,56
   14e5c:	02e99b23          	sh	a4,54(s3)
   14e60:	02f99a23          	sh	a5,52(s3)
   14e64:	04e98713          	addi	a4,s3,78
   14e68:	000c0793          	mv	a5,s8
   14e6c:	00079023          	sh	zero,0(a5)
   14e70:	00278793          	addi	a5,a5,2
   14e74:	fef71ce3          	bne	a4,a5,14e6c <emul+0x234>
   14e78:	04c98a13          	addi	s4,s3,76
   14e7c:	00000b93          	li	s7,0
   14e80:	01810913          	addi	s2,sp,24
   14e84:	00410c93          	addi	s9,sp,4
   14e88:	04210b13          	addi	s6,sp,66
   14e8c:	00095503          	lhu	a0,0(s2)
   14e90:	ffe90913          	addi	s2,s2,-2
   14e94:	0c051863          	bnez	a0,14f64 <emul+0x32c>
   14e98:	04c9d703          	lhu	a4,76(s3)
   14e9c:	000a0793          	mv	a5,s4
   14ea0:	00ebebb3          	or	s7,s7,a4
   14ea4:	ffe7d703          	lhu	a4,-2(a5)
   14ea8:	ffe78793          	addi	a5,a5,-2
   14eac:	00e79123          	sh	a4,2(a5)
   14eb0:	ff879ae3          	bne	a5,s8,14ea4 <emul+0x26c>
   14eb4:	02099c23          	sh	zero,56(s3)
   14eb8:	fd991ae3          	bne	s2,s9,14e8c <emul+0x254>
   14ebc:	03498713          	addi	a4,s3,52
   14ec0:	02010793          	addi	a5,sp,32
   14ec4:	03a10593          	addi	a1,sp,58
   14ec8:	00075603          	lhu	a2,0(a4)
   14ecc:	00278793          	addi	a5,a5,2
   14ed0:	00270713          	addi	a4,a4,2
   14ed4:	fec79f23          	sh	a2,-2(a5)
   14ed8:	fef598e3          	bne	a1,a5,14ec8 <emul+0x290>
   14edc:	ffffc6b7          	lui	a3,0xffffc
   14ee0:	015484b3          	add	s1,s1,s5
   14ee4:	00268693          	addi	a3,a3,2 # ffffffffffffc002 <__BSS_END__+0xfffffffffffd802a>
   14ee8:	000b8593          	mv	a1,s7
   14eec:	02010513          	addi	a0,sp,32
   14ef0:	00098793          	mv	a5,s3
   14ef4:	04000713          	li	a4,64
   14ef8:	00d486b3          	add	a3,s1,a3
   14efc:	00000613          	li	a2,0
   14f00:	f04ff0ef          	jal	ra,14604 <emdnorm>
   14f04:	02015703          	lhu	a4,32(sp)
   14f08:	00015783          	lhu	a5,0(sp)
   14f0c:	00040593          	mv	a1,s0
   14f10:	02010513          	addi	a0,sp,32
   14f14:	40e787b3          	sub	a5,a5,a4
   14f18:	00f037b3          	snez	a5,a5
   14f1c:	40f007bb          	negw	a5,a5
   14f20:	02f11023          	sh	a5,32(sp)
   14f24:	c65ff0ef          	jal	ra,14b88 <emovo.isra.0>
   14f28:	e39ff06f          	j	14d60 <emul+0x128>
   14f2c:	01448713          	addi	a4,s1,20
   14f30:	0004d783          	lhu	a5,0(s1)
   14f34:	00248493          	addi	s1,s1,2
   14f38:	00240413          	addi	s0,s0,2
   14f3c:	fef41f23          	sh	a5,-2(s0)
   14f40:	fee498e3          	bne	s1,a4,14f30 <emul+0x2f8>
   14f44:	e1dff06f          	j	14d60 <emul+0x128>
   14f48:	00090513          	mv	a0,s2
   14f4c:	834ff0ef          	jal	ra,13f80 <eisnan.part.0>
   14f50:	ea051ae3          	bnez	a0,14e04 <emul+0x1cc>
   14f54:	00048513          	mv	a0,s1
   14f58:	af0ff0ef          	jal	ra,14248 <eisinf.part.0>
   14f5c:	d60508e3          	beqz	a0,14ccc <emul+0x94>
   14f60:	d55ff06f          	j	14cb4 <emul+0x7c>
   14f64:	04010613          	addi	a2,sp,64
   14f68:	02010593          	addi	a1,sp,32
   14f6c:	f7dfe0ef          	jal	ra,13ee8 <m16m>
   14f70:	000a0593          	mv	a1,s4
   14f74:	00000613          	li	a2,0
   14f78:	05810713          	addi	a4,sp,88
   14f7c:	0005d803          	lhu	a6,0(a1)
   14f80:	00075783          	lhu	a5,0(a4)
   14f84:	ffe58593          	addi	a1,a1,-2
   14f88:	ffe70713          	addi	a4,a4,-2
   14f8c:	010787b3          	add	a5,a5,a6
   14f90:	00c787b3          	add	a5,a5,a2
   14f94:	0107d613          	srli	a2,a5,0x10
   14f98:	00f59123          	sh	a5,2(a1)
   14f9c:	00167613          	andi	a2,a2,1
   14fa0:	fd671ee3          	bne	a4,s6,14f7c <emul+0x344>
   14fa4:	ef5ff06f          	j	14e98 <emul+0x260>
   14fa8:	0124db03          	lhu	s6,18(s1)
   14fac:	000087b7          	lui	a5,0x8
   14fb0:	fff78793          	addi	a5,a5,-1 # 7fff <main-0x80b1>
   14fb4:	0167fb33          	and	s6,a5,s6
   14fb8:	030b1b13          	slli	s6,s6,0x30
   14fbc:	030b5b13          	srli	s6,s6,0x30
   14fc0:	defb14e3          	bne	s6,a5,14da8 <emul+0x170>
   14fc4:	00048513          	mv	a0,s1
   14fc8:	a80ff0ef          	jal	ra,14248 <eisinf.part.0>
   14fcc:	d40514e3          	bnez	a0,14d14 <emul+0xdc>
   14fd0:	01295783          	lhu	a5,18(s2)
   14fd4:	fff7c793          	not	a5,a5
   14fd8:	03179713          	slli	a4,a5,0x31
   14fdc:	dc0716e3          	bnez	a4,14da8 <emul+0x170>
   14fe0:	d29ff06f          	j	14d08 <emul+0xd0>
   14fe4:	01440793          	addi	a5,s0,20
   14fe8:	00240413          	addi	s0,s0,2
   14fec:	fe041f23          	sh	zero,-2(s0)
   14ff0:	fef41ce3          	bne	s0,a5,14fe8 <emul+0x3b0>
   14ff4:	d6dff06f          	j	14d60 <emul+0x128>
   14ff8:	01440793          	addi	a5,s0,20
   14ffc:	00240413          	addi	s0,s0,2
   15000:	fe041f23          	sh	zero,-2(s0)
   15004:	fef41ce3          	bne	s0,a5,14ffc <emul+0x3c4>
   15008:	d59ff06f          	j	14d60 <emul+0x128>
   1500c:	000215b7          	lui	a1,0x21
   15010:	1a858593          	addi	a1,a1,424 # 211a8 <ezero>
   15014:	00048513          	mv	a0,s1
   15018:	914ff0ef          	jal	ra,1412c <ecmp>
   1501c:	00050a63          	beqz	a0,15030 <emul+0x3f8>
   15020:	0124d783          	lhu	a5,18(s1)
   15024:	00faf7b3          	and	a5,s5,a5
   15028:	f9578ee3          	beq	a5,s5,14fc4 <emul+0x38c>
   1502c:	fa5ff06f          	j	14fd0 <emul+0x398>
   15030:	01040713          	addi	a4,s0,16
   15034:	00040793          	mv	a5,s0
   15038:	00278793          	addi	a5,a5,2
   1503c:	fe079f23          	sh	zero,-2(a5)
   15040:	fee79ce3          	bne	a5,a4,15038 <emul+0x400>
   15044:	7fffc7b7          	lui	a5,0x7fffc
   15048:	00f42823          	sw	a5,16(s0)
   1504c:	d15ff06f          	j	14d60 <emul+0x128>

0000000000015050 <ediv>:
   15050:	01255783          	lhu	a5,18(a0)
   15054:	f2010113          	addi	sp,sp,-224
   15058:	0c813823          	sd	s0,208(sp)
   1505c:	fff7c793          	not	a5,a5
   15060:	0c913423          	sd	s1,200(sp)
   15064:	0d213023          	sd	s2,192(sp)
   15068:	0b313c23          	sd	s3,184(sp)
   1506c:	0c113c23          	sd	ra,216(sp)
   15070:	0b413823          	sd	s4,176(sp)
   15074:	0b513423          	sd	s5,168(sp)
   15078:	0b613023          	sd	s6,160(sp)
   1507c:	09713c23          	sd	s7,152(sp)
   15080:	09813823          	sd	s8,144(sp)
   15084:	09913423          	sd	s9,136(sp)
   15088:	09a13023          	sd	s10,128(sp)
   1508c:	07b13c23          	sd	s11,120(sp)
   15090:	03179713          	slli	a4,a5,0x31
   15094:	00050913          	mv	s2,a0
   15098:	00058993          	mv	s3,a1
   1509c:	00060413          	mv	s0,a2
   150a0:	00068493          	mv	s1,a3
   150a4:	00071663          	bnez	a4,150b0 <ediv+0x60>
   150a8:	ed9fe0ef          	jal	ra,13f80 <eisnan.part.0>
   150ac:	38051863          	bnez	a0,1543c <ediv+0x3ec>
   150b0:	0129d783          	lhu	a5,18(s3)
   150b4:	fff7c793          	not	a5,a5
   150b8:	03179713          	slli	a4,a5,0x31
   150bc:	08070e63          	beqz	a4,15158 <ediv+0x108>
   150c0:	00021a37          	lui	s4,0x21
   150c4:	1a8a0593          	addi	a1,s4,424 # 211a8 <ezero>
   150c8:	00090513          	mv	a0,s2
   150cc:	860ff0ef          	jal	ra,1412c <ecmp>
   150d0:	10050463          	beqz	a0,151d8 <ediv+0x188>
   150d4:	01295a03          	lhu	s4,18(s2)
   150d8:	0129d703          	lhu	a4,18(s3)
   150dc:	000087b7          	lui	a5,0x8
   150e0:	fff78793          	addi	a5,a5,-1 # 7fff <main-0x80b1>
   150e4:	0147fa33          	and	s4,a5,s4
   150e8:	00e7fab3          	and	s5,a5,a4
   150ec:	08fa1a63          	bne	s4,a5,15180 <ediv+0x130>
   150f0:	00090513          	mv	a0,s2
   150f4:	954ff0ef          	jal	ra,14248 <eisinf.part.0>
   150f8:	10050863          	beqz	a0,15208 <ediv+0x1b8>
   150fc:	014a9863          	bne	s5,s4,1510c <ediv+0xbc>
   15100:	00098513          	mv	a0,s3
   15104:	944ff0ef          	jal	ra,14248 <eisinf.part.0>
   15108:	0e051063          	bnez	a0,151e8 <ediv+0x198>
   1510c:	01440793          	addi	a5,s0,20
   15110:	00240413          	addi	s0,s0,2
   15114:	fe041f23          	sh	zero,-2(s0)
   15118:	fef41ce3          	bne	s0,a5,15110 <ediv+0xc0>
   1511c:	0d813083          	ld	ra,216(sp)
   15120:	0d013403          	ld	s0,208(sp)
   15124:	0c813483          	ld	s1,200(sp)
   15128:	0c013903          	ld	s2,192(sp)
   1512c:	0b813983          	ld	s3,184(sp)
   15130:	0b013a03          	ld	s4,176(sp)
   15134:	0a813a83          	ld	s5,168(sp)
   15138:	0a013b03          	ld	s6,160(sp)
   1513c:	09813b83          	ld	s7,152(sp)
   15140:	09013c03          	ld	s8,144(sp)
   15144:	08813c83          	ld	s9,136(sp)
   15148:	08013d03          	ld	s10,128(sp)
   1514c:	07813d83          	ld	s11,120(sp)
   15150:	0e010113          	addi	sp,sp,224
   15154:	00008067          	ret
   15158:	00098513          	mv	a0,s3
   1515c:	e25fe0ef          	jal	ra,13f80 <eisnan.part.0>
   15160:	f60500e3          	beqz	a0,150c0 <ediv+0x70>
   15164:	01498713          	addi	a4,s3,20
   15168:	0009d783          	lhu	a5,0(s3)
   1516c:	00298993          	addi	s3,s3,2
   15170:	00240413          	addi	s0,s0,2
   15174:	fef41f23          	sh	a5,-2(s0)
   15178:	fee998e3          	bne	s3,a4,15168 <ediv+0x118>
   1517c:	fa1ff06f          	j	1511c <ediv+0xcc>
   15180:	08fa8663          	beq	s5,a5,1520c <ediv+0x1bc>
   15184:	00090513          	mv	a0,s2
   15188:	01010593          	addi	a1,sp,16
   1518c:	ea5fe0ef          	jal	ra,14030 <emovi>
   15190:	03010593          	addi	a1,sp,48
   15194:	00098513          	mv	a0,s3
   15198:	e99fe0ef          	jal	ra,14030 <emovi>
   1519c:	03215b83          	lhu	s7,50(sp)
   151a0:	01215903          	lhu	s2,18(sp)
   151a4:	0c0b9263          	bnez	s7,15268 <ediv+0x218>
   151a8:	03410793          	addi	a5,sp,52
   151ac:	04810d93          	addi	s11,sp,72
   151b0:	34fd8e63          	beq	s11,a5,1550c <ediv+0x4bc>
   151b4:	0007d703          	lhu	a4,0(a5)
   151b8:	00278793          	addi	a5,a5,2
   151bc:	fe070ae3          	beqz	a4,151b0 <ediv+0x160>
   151c0:	03010513          	addi	a0,sp,48
   151c4:	abcff0ef          	jal	ra,14480 <enormlz>
   151c8:	40a007b3          	neg	a5,a0
   151cc:	01215603          	lhu	a2,18(sp)
   151d0:	00f13423          	sd	a5,8(sp)
   151d4:	09c0006f          	j	15270 <ediv+0x220>
   151d8:	1a8a0593          	addi	a1,s4,424
   151dc:	00098513          	mv	a0,s3
   151e0:	f4dfe0ef          	jal	ra,1412c <ecmp>
   151e4:	ee0518e3          	bnez	a0,150d4 <ediv+0x84>
   151e8:	01040713          	addi	a4,s0,16
   151ec:	00040793          	mv	a5,s0
   151f0:	00278793          	addi	a5,a5,2
   151f4:	fe079f23          	sh	zero,-2(a5)
   151f8:	fee79ce3          	bne	a5,a4,151f0 <ediv+0x1a0>
   151fc:	7fffc7b7          	lui	a5,0x7fffc
   15200:	00f42823          	sw	a5,16(s0)
   15204:	f19ff06f          	j	1511c <ediv+0xcc>
   15208:	f74a9ee3          	bne	s5,s4,15184 <ediv+0x134>
   1520c:	00098513          	mv	a0,s3
   15210:	838ff0ef          	jal	ra,14248 <eisinf.part.0>
   15214:	f60508e3          	beqz	a0,15184 <ediv+0x134>
   15218:	00090513          	mv	a0,s2
   1521c:	dd5fe0ef          	jal	ra,13ff0 <eisneg>
   15220:	00050493          	mv	s1,a0
   15224:	00098513          	mv	a0,s3
   15228:	dc9fe0ef          	jal	ra,13ff0 <eisneg>
   1522c:	40a487b3          	sub	a5,s1,a0
   15230:	00f037b3          	snez	a5,a5
   15234:	00f79793          	slli	a5,a5,0xf
   15238:	00f41923          	sh	a5,18(s0)
   1523c:	01240713          	addi	a4,s0,18
   15240:	00040793          	mv	a5,s0
   15244:	00278793          	addi	a5,a5,2 # 7fffc002 <__BSS_END__+0x7ffd802a>
   15248:	fe079f23          	sh	zero,-2(a5)
   1524c:	fee79ce3          	bne	a5,a4,15244 <ediv+0x1f4>
   15250:	01245783          	lhu	a5,18(s0)
   15254:	00008737          	lui	a4,0x8
   15258:	fff70713          	addi	a4,a4,-1 # 7fff <main-0x80b1>
   1525c:	00e7e7b3          	or	a5,a5,a4
   15260:	00f41923          	sh	a5,18(s0)
   15264:	eb9ff06f          	j	1511c <ediv+0xcc>
   15268:	01713423          	sd	s7,8(sp)
   1526c:	00090613          	mv	a2,s2
   15270:	01213023          	sd	s2,0(sp)
   15274:	01410793          	addi	a5,sp,20
   15278:	02810693          	addi	a3,sp,40
   1527c:	02061263          	bnez	a2,152a0 <ediv+0x250>
   15280:	2af68063          	beq	a3,a5,15520 <ediv+0x4d0>
   15284:	0007d703          	lhu	a4,0(a5)
   15288:	00278793          	addi	a5,a5,2
   1528c:	fe070ae3          	beqz	a4,15280 <ediv+0x230>
   15290:	01010513          	addi	a0,sp,16
   15294:	9ecff0ef          	jal	ra,14480 <enormlz>
   15298:	40a907b3          	sub	a5,s2,a0
   1529c:	00f13023          	sd	a5,0(sp)
   152a0:	03012703          	lw	a4,48(sp)
   152a4:	03848d13          	addi	s10,s1,56
   152a8:	000d0793          	mv	a5,s10
   152ac:	02e4aa23          	sw	a4,52(s1)
   152b0:	04e48913          	addi	s2,s1,78
   152b4:	00278793          	addi	a5,a5,2
   152b8:	fe079f23          	sh	zero,-2(a5)
   152bc:	fef91ce3          	bne	s2,a5,152b4 <ediv+0x264>
   152c0:	03010513          	addi	a0,sp,48
   152c4:	b49fe0ef          	jal	ra,13e0c <eshdn1>
   152c8:	01615c03          	lhu	s8,22(sp)
   152cc:	00010a37          	lui	s4,0x10
   152d0:	04810d93          	addi	s11,sp,72
   152d4:	010c1a93          	slli	s5,s8,0x10
   152d8:	418a8ab3          	sub	s5,s5,s8
   152dc:	03210b13          	addi	s6,sp,50
   152e0:	fffa0a13          	addi	s4,s4,-1 # ffff <main-0xb1>
   152e4:	06a10c93          	addi	s9,sp,106
   152e8:	05210993          	addi	s3,sp,82
   152ec:	03415783          	lhu	a5,52(sp)
   152f0:	03615703          	lhu	a4,54(sp)
   152f4:	000a0b93          	mv	s7,s4
   152f8:	01079793          	slli	a5,a5,0x10
   152fc:	00e787b3          	add	a5,a5,a4
   15300:	00fae863          	bltu	s5,a5,15310 <ediv+0x2c0>
   15304:	0387d7b3          	divu	a5,a5,s8
   15308:	03079b93          	slli	s7,a5,0x30
   1530c:	030bdb93          	srli	s7,s7,0x30
   15310:	05010613          	addi	a2,sp,80
   15314:	01010593          	addi	a1,sp,16
   15318:	000b8513          	mv	a0,s7
   1531c:	bcdfe0ef          	jal	ra,13ee8 <m16m>
   15320:	03410713          	addi	a4,sp,52
   15324:	05410793          	addi	a5,sp,84
   15328:	0007d583          	lhu	a1,0(a5)
   1532c:	00075603          	lhu	a2,0(a4)
   15330:	00278793          	addi	a5,a5,2
   15334:	00270713          	addi	a4,a4,2
   15338:	12c59063          	bne	a1,a2,15458 <ediv+0x408>
   1533c:	ff9796e3          	bne	a5,s9,15328 <ediv+0x2d8>
   15340:	00000793          	li	a5,0
   15344:	06810593          	addi	a1,sp,104
   15348:	000d8613          	mv	a2,s11
   1534c:	00065703          	lhu	a4,0(a2)
   15350:	0005d803          	lhu	a6,0(a1)
   15354:	ffe60613          	addi	a2,a2,-2
   15358:	40f70733          	sub	a4,a4,a5
   1535c:	41070733          	sub	a4,a4,a6
   15360:	01075793          	srli	a5,a4,0x10
   15364:	00e61123          	sh	a4,2(a2)
   15368:	0017f793          	andi	a5,a5,1
   1536c:	ffe58593          	addi	a1,a1,-2
   15370:	fd661ee3          	bne	a2,s6,1534c <ediv+0x2fc>
   15374:	017d1023          	sh	s7,0(s10)
   15378:	03410793          	addi	a5,sp,52
   1537c:	0027d703          	lhu	a4,2(a5)
   15380:	00278793          	addi	a5,a5,2
   15384:	fee79f23          	sh	a4,-2(a5)
   15388:	ffb79ae3          	bne	a5,s11,1537c <ediv+0x32c>
   1538c:	04011423          	sh	zero,72(sp)
   15390:	002d0d13          	addi	s10,s10,2
   15394:	f5a91ce3          	bne	s2,s10,152ec <ediv+0x29c>
   15398:	00000593          	li	a1,0
   1539c:	03410793          	addi	a5,sp,52
   153a0:	04a10693          	addi	a3,sp,74
   153a4:	0007d703          	lhu	a4,0(a5)
   153a8:	00278793          	addi	a5,a5,2
   153ac:	00e5e5b3          	or	a1,a1,a4
   153b0:	fed79ae3          	bne	a5,a3,153a4 <ediv+0x354>
   153b4:	0105979b          	slliw	a5,a1,0x10
   153b8:	4107d79b          	sraiw	a5,a5,0x10
   153bc:	00078463          	beqz	a5,153c4 <ediv+0x374>
   153c0:	00100593          	li	a1,1
   153c4:	03059593          	slli	a1,a1,0x30
   153c8:	0305d593          	srli	a1,a1,0x30
   153cc:	03448713          	addi	a4,s1,52
   153d0:	03010793          	addi	a5,sp,48
   153d4:	00075603          	lhu	a2,0(a4)
   153d8:	00278793          	addi	a5,a5,2
   153dc:	00270713          	addi	a4,a4,2
   153e0:	fec79f23          	sh	a2,-2(a5)
   153e4:	fef698e3          	bne	a3,a5,153d4 <ediv+0x384>
   153e8:	00813783          	ld	a5,8(sp)
   153ec:	00013703          	ld	a4,0(sp)
   153f0:	000046b7          	lui	a3,0x4
   153f4:	fff68693          	addi	a3,a3,-1 # 3fff <main-0xc0b1>
   153f8:	40e78bb3          	sub	s7,a5,a4
   153fc:	03010513          	addi	a0,sp,48
   15400:	00048793          	mv	a5,s1
   15404:	04000713          	li	a4,64
   15408:	00db86b3          	add	a3,s7,a3
   1540c:	00000613          	li	a2,0
   15410:	9f4ff0ef          	jal	ra,14604 <emdnorm>
   15414:	03015703          	lhu	a4,48(sp)
   15418:	01015783          	lhu	a5,16(sp)
   1541c:	00040593          	mv	a1,s0
   15420:	03010513          	addi	a0,sp,48
   15424:	40e787b3          	sub	a5,a5,a4
   15428:	00f037b3          	snez	a5,a5
   1542c:	40f007bb          	negw	a5,a5
   15430:	02f11823          	sh	a5,48(sp)
   15434:	f54ff0ef          	jal	ra,14b88 <emovo.isra.0>
   15438:	ce5ff06f          	j	1511c <ediv+0xcc>
   1543c:	01490713          	addi	a4,s2,20
   15440:	00095783          	lhu	a5,0(s2)
   15444:	00290913          	addi	s2,s2,2
   15448:	00240413          	addi	s0,s0,2
   1544c:	fef41f23          	sh	a5,-2(s0)
   15450:	fee918e3          	bne	s2,a4,15440 <ediv+0x3f0>
   15454:	cc9ff06f          	j	1511c <ediv+0xcc>
   15458:	eeb674e3          	bgeu	a2,a1,15340 <ediv+0x2f0>
   1545c:	fffb879b          	addiw	a5,s7,-1
   15460:	03079893          	slli	a7,a5,0x30
   15464:	0308d893          	srli	a7,a7,0x30
   15468:	00000793          	li	a5,0
   1546c:	02810593          	addi	a1,sp,40
   15470:	06810613          	addi	a2,sp,104
   15474:	00065703          	lhu	a4,0(a2)
   15478:	0005d803          	lhu	a6,0(a1)
   1547c:	ffe60613          	addi	a2,a2,-2
   15480:	40f70733          	sub	a4,a4,a5
   15484:	41070733          	sub	a4,a4,a6
   15488:	01075793          	srli	a5,a4,0x10
   1548c:	00e61123          	sh	a4,2(a2)
   15490:	0017f793          	andi	a5,a5,1
   15494:	ffe58593          	addi	a1,a1,-2
   15498:	fd361ee3          	bne	a2,s3,15474 <ediv+0x424>
   1549c:	03410713          	addi	a4,sp,52
   154a0:	05410793          	addi	a5,sp,84
   154a4:	0007d583          	lhu	a1,0(a5)
   154a8:	00075603          	lhu	a2,0(a4)
   154ac:	00278793          	addi	a5,a5,2
   154b0:	00270713          	addi	a4,a4,2
   154b4:	00c59863          	bne	a1,a2,154c4 <ediv+0x474>
   154b8:	ff9796e3          	bne	a5,s9,154a4 <ediv+0x454>
   154bc:	00088b93          	mv	s7,a7
   154c0:	e81ff06f          	j	15340 <ediv+0x2f0>
   154c4:	feb67ce3          	bgeu	a2,a1,154bc <ediv+0x46c>
   154c8:	ffeb879b          	addiw	a5,s7,-2
   154cc:	03079b93          	slli	s7,a5,0x30
   154d0:	030bdb93          	srli	s7,s7,0x30
   154d4:	00000613          	li	a2,0
   154d8:	02810593          	addi	a1,sp,40
   154dc:	06810713          	addi	a4,sp,104
   154e0:	00075783          	lhu	a5,0(a4)
   154e4:	0005d803          	lhu	a6,0(a1)
   154e8:	ffe70713          	addi	a4,a4,-2
   154ec:	40c787b3          	sub	a5,a5,a2
   154f0:	410787b3          	sub	a5,a5,a6
   154f4:	0107d613          	srli	a2,a5,0x10
   154f8:	00f71123          	sh	a5,2(a4)
   154fc:	00167613          	andi	a2,a2,1
   15500:	ffe58593          	addi	a1,a1,-2
   15504:	fd371ee3          	bne	a4,s3,154e0 <ediv+0x490>
   15508:	e39ff06f          	j	15340 <ediv+0x2f0>
   1550c:	01440793          	addi	a5,s0,20
   15510:	00240413          	addi	s0,s0,2
   15514:	fe041f23          	sh	zero,-2(s0)
   15518:	fe879ce3          	bne	a5,s0,15510 <ediv+0x4c0>
   1551c:	c01ff06f          	j	1511c <ediv+0xcc>
   15520:	01015703          	lhu	a4,16(sp)
   15524:	03015783          	lhu	a5,48(sp)
   15528:	00f70463          	beq	a4,a5,15530 <ediv+0x4e0>
   1552c:	00008637          	lui	a2,0x8
   15530:	00c41923          	sh	a2,18(s0)
